0000                          org 0
                      
0000                  xcnt            rmb 1
0001                  vscnt           rmb 1
0002                  gfxaddr         rmb 2
0004                  scrnflag        rmb 1
                              
1000                          org $1000
                      
                      DBGPAL  macro           ;check frame time
                              lda $ff22
                              eora #$18
                              sta $ff22
                              endm
                      
1000                  start
                      
1000  1A50                    orcc #$50
                      
                              ;enable tape output and vsync - thanks chibiakumas/keith!
1002  863E                    lda #%00111110  ;Bit 3=0 Bit0=Hsync
1004  B7FF01                  sta $ff01               ;Bit 3  CA2: Select Device (Multiplexor LSB)
1007  8637                    lda #%00110111  ;Bit 3=0 Bit0=Vsync
1009  B7FF03                  sta $ff03               ;Bit 3  CB2: Select Device (Multiplexor MSB)
                      
                              ;new irq vector
100C  867E                    lda #$7e        ;hijack with jmp
100E  B7010C                  sta $010c
1011  8E102E                  ldx #irq_start  ;point to our irq routine
1014  BF010D                  stx $010d
                      
1017  1CEF                    andcc #$ef      ;reenable interrupts
                      
1019  BD10B1                  jsr pmoded
                      
101C  7F0001                  clr vscnt
101F  7F0004                  clr scrnflag
                      
1022  8E10DF                  ldx #torusgfx
1025  BF0002                  stx gfxaddr
                      
                              ;clr $ffd7
1028  BD10A3                  jsr clear_d
                      
102B                  main
102B  7E102B                  jmp main
                      
102E                  irq_start
102E  B6FF02                  lda $ff02
                      
                              ;DBGPAL
1031  7C0001                  inc vscnt
1034  B60001                  lda vscnt
1037  8102                    cmpa #2
1039  261B                    bne actualendiswear
                      
103B  7F0001                  clr vscnt
103E  BD107C                  jsr toruscopy2
1041  BD1057                  jsr torusmain
1044  BE0002                  ldx gfxaddr
1047  30890200                leax 512,x
104B  8C20DF                  cmpx #torusgfxend
104E  2603                    bne irq_end
1050  8E10DF                  ldx #torusgfx
1053                  irq_end
1053  BF0002                  stx gfxaddr
1056                  actualendiswear
                              ;DBGPAL
1056  3B                      rti
                      
1057                  torusmain
1057  BE0002                  ldx gfxaddr
105A  108E0400                ldy #$400
105E  7F0000                  clr xcnt
1061                  toruscopy
1061  EC81                    ldd ,x++
1063  EDA1                    std ,y++
1065  7C0000                  inc xcnt
1068  B60000                  lda xcnt
106B  8108                    cmpa #8
106D  2606                    bne skipreset
106F  31A810                  leay 16,y
1072  7F0000                  clr xcnt
1075                  skipreset
1075  108C0800                cmpy #$800
1079  26E6                    bne toruscopy
107B  39                      rts
                      
107C                  toruscopy2
107C  7F0000                  clr xcnt
107F  8E0400                  ldx #$400
1082  108E0410                ldy #$410
1086                  toruscopy2lp
1086  EC81                    ldd ,x++
1088  EDA1                    std ,y++
108A  7C0000                  inc xcnt
108D  B60000                  lda xcnt
1090  8108                    cmpa #8
1092  2609                    bne skipreset2
1094  308810                  leax 16,x
1097  31A810                  leay 16,y
109A  7F0000                  clr xcnt
109D                  skipreset2
109D  8C0800                  cmpx #$800
10A0  26E4                    bne toruscopy2lp
10A2  39                      rts
                      
10A3                  clear_d
10A3  8E0400                  ldx #$400
10A6  CC0000                  ldd #0
10A9                  clear_dlp
10A9  ED81                    std ,x++
10AB  8C0800                  cmpx #$800
10AE  26F9                    bne clear_dlp
10B0  39                      rts
                      
10B1                  pmoded
10B1  BD10BD                  jsr pmodereset
                                  ; AGGGC---  C=Color (0=Green 1=Orange)
10B4  8680                    lda #%10000000
10B6  B7FF22                  sta $FF22
10B9  B7FFC1                  sta $ffc0+1     ;SAM V0=1
10BC  39                      rts
                      
10BD                  pmodereset
10BD  B7FFC6                  sta $FFC6       ;Clr ScrBase Bit 0      $0200
10C0  B7FFC8                  sta $FFC8       ;Clr ScrBase Bit 1      $0400
10C3  B7FFCA                  sta $FFCA       ;Clr ScrBase Bit 2      $0800
10C6  B7FFCC                  sta $FFCC       ;Clr ScrBase Bit 3      $1000
10C9  B7FFCE                  sta $FFCE       ;Clr ScrBase Bit 4      $2000
10CC  B7FFD0                  sta $FFD0       ;Clr ScrBase Bit 5      $4000
10CF  B7FFD2                  sta $FFD2       ;Clr ScrBase Bit 6      $8000
                      
10D2  B7FFC9                  sta $FFC8+1     ;Set ScrBase Bit 1      $0400
                      
10D5  B7FFC0                  sta $FFC0       ;SAM V0=0
10D8  B7FFC2                  sta $FFC2       ;SAM V1=0
10DB  B7FFC4                  sta $FFC4       ;SAM V2=0
10DE  39                      rts
                      
10DF                  torusgfx
10DF  5555FFFFFF55555555555555FFFFFFFF5557FFFFF555555555557FFFFFFFFFFF5557FFFF5555555557FFFFFFFFF55555555FFFF55555555FFFFFFFF555555555D55FFF5555555FFFFFFD555555555555FD57FF55555FFFFFD55555555557FFFF5555FD5555FFFFD555555557FFFFFFFF55557D555FFFD55555557FFFFD555555FFD55555FFF5555557FFFFF5555555557FFFFFD7FF555557FFFF55555FFFFFFF555557FFF55557FFFD555557F5555FFFFFF55555D555FFFD55555FFF55555555555FFFFFD57FFD55555FFFD5FFFFFFFFD555555555FF55555FFFD555555555557FFFFFFFFFF5555FFFF5557FFFFFFFFF555555555F5557FFF55557F555555555FFFFFFFFF557FFF55555FFD7FFFFFFFF5555555555FFF55555FFF55555555555FFFFFFFFDFF555557FFF555FFFFFFFFF55555555FD55557FFF5555FD55555557FFFFFFFF5555FFFFD5555FFD7FFFD5555555555555FFFF555555FFD55557FFFF55555557FFFD555555FFFF555F555555FFFFFFFFF5555555FFFFD5555FD555555557FD55555557FFFFF555557FF5555555555555557FFFFFF5555555FFF555555555555FFFFFFFD55555555FFFD555FD55FFFFFFFFFD5555555557FFFF55557FFFFFFFFD555555555555FFFFFD55555FFFD555555555555555FFFFFFD55555575555555555555555FFFFFFFD5555555755555555555557FFFFFFFF5555555557555555FFFFFFD5555555555555557FFF55555FFFFFF5555555555555FFFFFFFF55557FFFFD5555555555FFFFFFFFFFFF55557FFFD555555557FFFFFFFF555555D555FFFD5555555FFFFFFF5555555555FD55FFD555555FFFFFF55555555555F555557FD5555FFFFF5555555557FFFFFF55555F5555FFFF55555555FFFFF7FFFFD55557D55FFFD5555557FFFF55555555FFFFD5557FF555555FFFFD55555555555557FFFDFF55557FFFF55555FFFFFFFFF5555555F5555FFFF55555FF555555557FFFFFFFD557FFF55555FFF7FFFFFFFF55555555557FF55555FFFD5555555555FFFFFFFD57FD55557FFF555FFFFFFFFF555555557FD5557FFF5555F555555555FFFFFFFFDD557FFF55557FDFFFFFFFD555555555555FFF55555FFF555555557FFFFFFFFD57FF555557FFF55FFFFFFD5555555555FFD55557FFFD555F555557FFFFFFF557D55557FFFD5555FF7FD55555555FFFF5555FFFFD55555FFD55FFFFFF555555557FFFF5555557FFD55555557FFFFFF5FFFFD5555557FFFD5557D55555FFFFFFFD55555557FFFFD55557F55555557D555555555FFFFFD555555FFD55555555555557FFFFFFD55555557FFD557D555557FFFFFFFF5555555557FFFD555FFFFFFFFFFFF55555555555FFFFF55555FFFFFFF55555555555557FFFFFD55555F555555555555555555FFFFFFD55555555555555555555557FFFFFFFD555555555555555FFFFFFFD55555555555555555555555FFFFFFD55555555555555FFFF555555FFFFFD555555555557FFFFFFFFD55557FFFF5555555555FFFFFFFFFF55FD555FFFF55555555FFFFFFFD55555555F555FFF5555557FFFFFF5555555555555555FF555557FFFFF5555555557FD5555555FF5555FFFFD55555555FFFFFFFF555557D555FFFD5555555FFFFD555555FFD555555FFF5555557FFFF55555555557FFFFFD7FD55555FFFFD5557FFFFFFF55555555FD5555FFFF55555F55555555FFFFFF5575557FFF55555FFFFFFFFD55555555FFF55FFF555557FF55555555FFFFFFD55555FFD55557FFD55FFFFFD55555555FFFFFF55557FFF55575555557FFFFFFD5555F5557FFF55557FFFFFD5555555557FFF555FFFD5555FFD55555FFFFFFD5555555FFFD55557FFD57FFF55555555FFFFFFFFD55555FFFD55F555FFFFF55555557F555557FFFF5557F55555555FFFFFFFD55557FFFF55555FF5FFFFF555555555555FFFFD555557FFD55557FFF5555555FFFFF5555555FFFD555F55557FFFFFFFFF55555555FFFFD5555FD5555FFFFFD555555555FFFFF555555FF5555555555555555FFFFFFD5555557FFD55F555555557FFFFFFFD55555555FFFD5555555FFFFFFFFFD5555555555FFFF5555FFFFFFFFFFD555555555557FFFFF5555FFFFFFD555555555555557FFFFFD5555F5555555555555555557FFFFFFD55555D555555555FFFFFFFFD5555555555555D55555555FFFFFFF5555555555555555F5555557FFFFFF5555555555555FFFFFFD55555FFFFF55555555557FFFFFFFFFFF5555FFFFD55555555FFFFFFFFD555557D557FFF55555557FFFFFFD55555555555557FF5555557FFFFF5555555555555557D7FD55557FFFFD55555557FFFFFF555555F5555FFFF55555557FFFFFFFFFF555557557FFF5555555FFFF55555555FFFFFF555FFD555557FFFD557FFFFFFD55555FFF7FD55557FFFD5557555555FFFFFD55557D5557FFFD5555FFD55555555557FFFFF555FFFD55557FD557FFFFFFFD555555557FFD55557FFD5FD555555555FFFFFFF7FF55557FFF555555FFFFFFF55555555FD5557FFFD555FFD55555555FFFFFFFFD555FFFD5555FF557FFFFFF55555555555FFFD55557FF57D5555555FFFFFFFF5FFFD55555FFF5575FFFFFFF55555557FF555555FFFF555FD5555557FFFFFFFF555555FFFF55557FDFFF5555555555555557FFFF555557FF557FFFFF555555557FFFFF5555557FFD555555FFFFFD57FFFFF55555555FFFF5557F5557FFFFFFFD555555555FFFFD55557FD5FFFFF555555555557FFFFF5555557FF557555555555557FFFFFFD5555555FFFD5555555557FFFFFFFF5555555557FFFD55557FFFFFFFFFFD55555555557FFFFD55FFFFFFFFFFD5555555555557FFFFF555FFFFFFD5555555555555557FFFFFD555FFD5555555555FFFFFFFFFD555555555FF555555555FFFFFFFF5555555555555FF55555557FFFFFFD555555555555555FFD555557FFFFF555555555555FFFFFF7FD55557FFFF5555555555FFFFFFFFF557F5557FFFD55555557FFFFFFF5555555FFD557FFD555555FFFFFF555555555557FFD5FFD55555FFFFF55555555D55555557FDFF5555FFFFD5555555FFFFFFFF5555557D557FFFD555555FFFF5555555FFFF555557FFD555555FFFF555555555555FFFFF5FFD55557FFFD5557FFFFFFFF55555557F55557FFFD5557D555555555FFFFFFFFD555FFFD55557FFFFFFFFFF555555555557FFD55557FF5555555555FFFFFFFFF5FFF55557FFF55FFFFFFFFF5555555557F55555FFFD557555555555FFFFFFFFFF5555FFFD5557FFFFFFFFFD555555555555FFFD55557FD555555557FFFFFFFF55FFFD55555FFF57FFFFFF5555555555FFFD555557FFF557D55557FFFFFFD55FF5555557FFFD5557FF555555FFFFFFD555555FFFFD55557FF5FFFFD555555555557FFFFD555557FFD555FFFF5555555FFFFFF55555557FFF555F57FFFF5FFFFFFF555555557FFFF55557F5FFFFFFFFD5555555557FFFFF555557FD5755555555555555FFFFFFD5555557FF5555555555555FFFFFFFD55555555FFFD55555555FFFFFFFFFD5555555557FFFD557FFFFFFFFFFFF555555555557FFFFD5FFFFFFFFFFF55555555555555FFFFFD5FFFFD55555555557FFFFFFFFFFD55555FFFF5555555557FFFFFFFFD555555555FFFD55555557FFFFFFF55555555555557FFD555555FFFFFFD5555555555555FF57FD55555FFFFF55555555557FFFFFFF55FD5555FFFF555555555FFFFFFF5555FFFF5557FFD5555555FFFFFFD5555555FFFFD55FFD555557FFFFF5555555555555FFFD7FD55557FFFFD555555FFFFFFF555557FF5555FFFF5555557FFD57FFFFFF555557557FFF555555FFFD555555555FFFFFFF57FFD55555FFFD55FFFFFFFF555555555FF55555FFFD555555555555FFFFFFF57F5555FFFD5555FFFFFFFFFF55555555FD557FFD55557FD555555555FFFFFFD5555FFF55555FFD5FFFFFFFD555555557F7FF55555FFFD5555555555FFFFFFFF55FD5555FFFD5557FFFFFF55555555555F5555FFFF55557F555555FFFFFFFF555555FFFF55555FFD5FFFD555555557FFD5FFFF555557FFF555557FFFF5555555FFFD555555FFFD555F5555555FFFFFFFD5555557FFFF55557FDFFD555555555555555FFFFF555555FF57FFFFD555555555FFFFFF5555557FFF557FFFF55555FFFFFFFD55555557FFFD555FDFFFFFFFFFFF5555555557FFFFD55557F55FFFF5555555555557FFFFF5555557FF555555555555555FFFFFFD55555557FFD55555555557FFFFFFFF555555555FFFF5555555FFFFFFFFFF55555555557FFFF57FFFFFFFFFFFFD555555555555FFFFF5FFFFFD555555555555FFFFFFFFFFFFF5FFFFD5555555555FFFFFFFFFFD5555557FFF555555555FFFFFFFF555555555557FFD5555555FFFFFFF555555555555555FFD555557FFFFFD55555555557FFFF557FD5555FFFFF5555555557FFFFFFFFFFFFD5557FFF55555555FFFFFFD55555FFF57557FFD5555557FFFFF555555555FFFFFD57FD55555FFFFF5555555555555557FFDFF5555FFFFD555555FFFFFFFF55555557D557FFFD555557FFD5555555FFFFFF55557FFD555557FFD5FFFFFFFF555557FFD7FF55555FFFF55555555557FFFFD5555FF5555FFFF5557FFFF5555555555FFFFF5557FFF55557F55555FFFFFFF555555557FFF55555FF5FFFFD55555555FFFFF57FF55555FFF5555555FFFFFFF5555557FD55557FFF555FFFD555555555FFFFFF55557FFF5555FD555FFFFF555555555555FFFF55555FF5FD555555FFFFFFFD55FFFF555555FFD557FFFFFF55555555FFFF555555FFFD557555555FFFFFFFFFF5555555FFFFD5557DD555555557FF55555555FFFFD55555FF5FFD5555555555555FFFFFF555555FFD55FFFD5555555FFFFFFFD5555555FFFD557F55555FFFFFFFFD555555557FFFD5555FD5FFFFFFFF55555555557FFFFF555557FDFD555555555555557FFFFFD5555557FF55555555555555FFFFFFFD55555557FF55555555555FFFFFFFFD5555555557FF5555555FFFFFFFFFFD55555555555FFF555FFFFFD55555555555557FFFFFFFFF557FFFFD55555555555FFFFFFFFFFFFF557FFFD5555555557FFFFFFFFF555555557FFF55555555FFFFFFFD5555555555557FFD555555FFFFFFD5555555555557F55FF555557FFFFF5555555557FFFFFFD557F55557FFFF55555555FFFFFF5FFFF5557D557FFF5555555FFFFFD5555555FFFF5555FFF555557FFFFD555555555555FFFFD7FD55557FFFF555555FFFFFFF55555577F5557FFFD555557FD5555555FFFD5555D557FFD555557FFD7D5555555557FFFFD5FFF555557FFF5557FFFFFFFF55555557FD55557FFF555D55555555557FFFFFFFD5557FFF5555F5FFFFFFFF555555555D557FFF55555FDF555555557FFFFFFFF55FFF55555FFF555FFFFFFF5555555557FFD55557FFD55755555555FFFFFFFFFFD55557FFF5557D7FFFFFFF55555555F55557FFFD5555FD55555555FFFFFFFD555FFFFD55555FF57FFFFF55555555555FFFF5555557FFD555555FFFF555557FFFD5555557FFFD555F555555FFFFFFFD55555557FFFF55557F5F55555555555555555FFFFFD55555FFD5F5555555555557FFFFFFD555555FFF555D55555557FFFFFFFF55555555FFFF5557F5FFFFFFFFFFD5555555557FFFF555557FFFFFFF5555555555555FFFFFD555557F55555555555555557FFFFFFD5555555F55555555555555FFFFFFFF555555555F55555555555FFFFFFFFFD5555555555F         includebin "torus5.bin"
20DF                  torusgfxend
                      
20DF                          end start
