0014                          org 20
                      
0014                  vsync_count     rmb 2
0016                  imageflag       rmb 1
                      
1000                          org $1000
                      
1000                  start
                      
1000  10CE3E00                lds #$3E00      ;set up stacks
1004  CE3D00                  ldu #$3D00
                      
1007  1A50                    orcc #$50       ;disable interrupts
                      
1009  B6FF23                  lda $ff23
100C  8A08                    ora #%00001000
100E  B7FF23                  sta $ff23
                      
1011  863E                    lda #%00111110  ;Bit 3=0 Bit0=Hsync
1013  B7FF01                  sta $ff01               ;Bit 3  CA2: Select Device (Multiplexor LSB)
1016  8637                    lda #%00110111  ;Bit 3=0 Bit0=Vsync
1018  B7FF03                  sta $FF03               ;Bit 3  CB2: Select Device (Multiplexor MSB)
                      
                              ;MX-H   MX-L
                              ;0      0       DAC
                              ;0      1       Cassette
                              ;1      0       Cartridge
                              ;0      0       Unused
                      
101B  867E                    lda #$7e                ;hijack with jmp
101D  B7010C                  sta $010c
1020  8E103A                  ldx #irq_start          ;point to our irq routine
1023  BF010D                  stx $010d
                      
1026  1CEF                    andcc #$ef              ;reenable interrupts
                      
1028  7F1163                  clr sgflag1
102B  7F1164                  clr sgflag2
                      
102E  BD1122                  jsr pmode1
                      
1031  7F0016                  clr imageflag
                      
1034  7F0014                  clr vsync_count
                      
1037                  main
1037  7E1037                  jmp main
                      
103A                  irq_start
103A  B6FF02                  lda $ff02               ;acknowledge interrupt
103D  7C0014                  inc vsync_count
                      
1040  B60014                  lda vsync_count
1043  8196                    cmpa #150
1045  2609                    bne skip0
1047  7C0016                  inc imageflag
104A  CC0000                  ldd #$0000
104D  FD0014                  std vsync_count
1050                  skip0
1050  B60016                  lda imageflag
1053  8100                    cmpa #0
1055  2606                    bne skip1
1057  8E1165                  ldx #robotskiss
105A  BD1137                  jsr copyimage
105D                  skip1
105D  B60016                  lda imageflag
1060  8101                    cmpa #1
1062  2606                    bne skip2
1064  8E1D65                  ldx #twisterlolly
1067  BD1137                  jsr copyimage
106A                  skip2
106A  B60016                  lda imageflag
106D  8102                    cmpa #2
106F  2606                    bne skip3
1071  8E2965                  ldx #youwouldnt
1074  BD1137                  jsr copyimage
1077                  skip3
1077  B60016                  lda imageflag
107A  8103                    cmpa #3
107C  2606                    bne skip4
107E  8E4D65                  ldx #pirates
1081  BD1137                  jsr copyimage
1084                  skip4
1084  B60016                  lda imageflag
1087  8104                    cmpa #4
1089  2606                    bne skip5
108B  8E5965                  ldx #trashbaby
108E  BD1137                  jsr copyimage
1091                  skip5
1091  B60016                  lda imageflag
1094  8105                    cmpa #5
1096  2606                    bne skip6
1098  8E6565                  ldx #cygnetsong
109B  BD1137                  jsr copyimage
109E                  skip6
109E  B60016                  lda imageflag
10A1  8106                    cmpa #6
10A3  2606                    bne skip7
10A5  8E7165                  ldx #squibb
10A8  BD1137                  jsr copyimage
10AB                  skip7                   ;SGCOLS
10AB  B61163                  lda sgflag1
10AE  8101                    cmpa #1
10B0  2609                    bne skipsg1
10B2  BD1146                  jsr sg12mode
10B5  BD112E                  jsr palswap
10B8  7F1163                  clr sgflag1
10BB                  skipsg1
10BB  B60016                  lda imageflag
10BE  8107                    cmpa #7
10C0  2606                    bne skip8
10C2  8E3565                  ldx #dragonraccoon2
10C5  BD1137                  jsr copyimage
10C8                  skip8                   ;SGCOLS
10C8  B61163                  lda sgflag1
10CB  8101                    cmpa #1
10CD  2606                    bne skipsg2
10CF  BD1146                  jsr sg12mode
10D2  7F1163                  clr sgflag1
10D5                  skipsg2
10D5  B60016                  lda imageflag
10D8  8108                    cmpa #8
10DA  2606                    bne skip9
10DC  8E4165                  ldx #cowadragon
10DF  BD1137                  jsr copyimage
10E2                  skip9
10E2  B60016                  lda imageflag
10E5  8109                    cmpa #9
10E7  2608                    bne checksgflag
10E9  8600                    lda #0
10EB  B70016                  sta imageflag
10EE  BD1122                  jsr pmode1
                      
10F1                  checksgflag
10F1  B60016                  lda imageflag
10F4  8107                    cmpa #7
10F6  2605                    bne irq_end
10F8  8601                    lda #1
10FA  B71163                  sta sgflag1
                      
10FD                  irq_end
10FD  3B                      rti
                      
                      
10FE                  pmodereset                      ;pmode routines from chibiakumas
10FE  8600                    lda #0
1100  B7FFC6                  sta $FFC6
1103  B7FFC8                  sta $FFC8
1106  B7FFCA                  sta $FFCA
1109  B7FFCC                  sta $FFCC
110C  B7FFCE                  sta $FFCE
110F  B7FFD0                  sta $FFD0
1112  B7FFD2                  sta $FFD2
                      
1115  B7FFC9                  sta $FFC8+1             ;set screenbase $400
1118  B7FFC0                  sta $FFC0
111B  B7FFC2                  sta $FFC2
111E  B7FFC4                  sta $FFC4
1121  39                      rts
                      
1122                  pmode1  ;128x96
1122  BD10FE                  jsr pmodereset
                              ;     AGGGC---  C=Color (0=Green 1=Orange)
1125  86C0                    lda #%11000000
1127  B7FF22                  sta $FF22
112A  B7FFC5                  sta $FFC4+1 ;SAM V2=1
112D  39                      rts
                      
112E                  palswap
112E  B6FF22                  lda $FF22
1131  8808                    eora #%00001000 ;Switch CSS color palette
1133  B7FF22                  sta $FF22
1136  39                      rts
                      
1137                  copyimage
1137  108E0400                ldy #$400
113B                  copyloop
113B  A680                    lda ,x+
113D  A7A0                    sta ,y+
113F  108C1000                cmpy #$1000
1143  26F6                    bne copyloop
1145  39                      rts
                      
1146                  sg12mode                        ;64x96
1146  8600                    lda #0
1148  B7FF22                  sta $FF22
                      
114B  B7FFC0                  sta $ffc0
114E  B7FFC2                  sta $ffc2
1151  B7FFC5                  sta $ffc5
1154  39                      rts
                      
1155                  sg12clr
1155  8E0400                  ldx #$400
1158  CC8080                  ldd #$8080
115B                  sg12clrlp
115B  ED81                    std ,x++
115D  8C1000                  cmpx #$1000
1160  26F9                    bne sg12clrlp
1162  39                      rts
                      
1163                  sgflag1     rmb 1
1164                  sgflag2     rmb 1
                      
1165                  robotskiss
1165  555555555555555555555555555555555555545555555555555555555555555555555555555555555155555555555555555553155555555555555555555555555555555555155555405555551555555555555FD55555555555555555555555555555555554055555405555540555555555555FD40555555555555555155554555555555554055555405555540555555555555FD455555515555555551555545555505555550155554055555015555541555553D414051404055444151515044555501555550155554055555015555501555550D45404451415544445144454155544055555455555515555545555540515555C540445150505540445151504455521015555555555555555555555501485555F5555555555555555555555555555B94155555555555555555555555056E5555FD4455555155555551555555555558D5555555555555555555555555556355553D405555555555515555555555555BD5555555555555555555555555556F55550D4450445140504051514155555558D555555555555555555555555555635555C5444444514444515144445555555BD5554AAAAAAAAAAAAAAAAAAA15556F5555F5444051515440505151445555555BD554AAAAABFAAAAAABFAAAAAA1556F5555FD555555554055555555555555555BD552AAAABFFFAAAABFFFAAAAA8556F55553D405044555155555145555545555BD55AB000AAAA8000AAAA8444EA556F54450D454540554455515545555545555B954AC002AEEEA002AEEEA1113A156E5515C5414540554041405141505044555AD56A000A8000A80A8000A8444A956B5555F5454544554444515144444541554B856A002A00002A2A00002A111A956E1555FD405044554444505144405044552EE16A00083F3F08083F3F08044A94BB85553D55555555555555555555555554BBC86A0000FFF7C000FFF7C0011A92EF21550D50555555555555545151515556AEFEEA0000FFFFC000FFFFC0004ABABBF955C545555551555555444444415552ABFEEA0150FFFFC000FFFFC1501ABAAFF855F540445040404055405050515556AAFEAA50003FFF00003FFF00014AAAABF955FD54445151414055545454515554AAF86A00000FFC00000FFC00000A92ABE1553D415141505044555451514055552AA16A000003F0000003F000000A94AA85550D554555555555555555555555554A856A000000C0000000C000000A952A1555C55041515540555555555555555554556A00330000000000000CC00A95515555F54554445551555555555155555115556A0CCCCC000000000333330A95555445FD4451405551504140404055555455556A333F33003003000CCFCCCA955551113D4445445551444544415155555555556ACFFFFCC0FC0FC033FFFF3A944551510D5040445551404554505055555555556A333F33003F3F000CCFCCCA94055445C55555555555555540555555555554456A0CCCCC000FFC2AA333330A95155515F55055555555555551555555555551116A0033000003F0AAAA0CC00A95555555FD4555555555555555555555555551516A000000000FFCA14A80000A955115553D4044414140505051514155555554456A000000003F3A2A1280000A954445550D5444444541515151444455555555156A00000000FC2A8296E0000A95454555C54140414550414151514455555555556A0000000030388094B0000A95511555F55555455555555555555555555555554AC0000000002DA215E0003A15545555FD4455555155455555555555555555555AB000000000382855B000EA555555553D44555551514555555555555555115552AAAAAAAAAAAE5555FEAAA8555555550D40405051404150504140555554445114AAAAAAAAAABB15553FAAA155554455C5444144515144454445415555545450154AAAAAAAAAAFF1554FEA1555551115F544504051504450404550555555115455555556AFFBBBFFC553B55555111515FD55555555555555555555555555455555555556AFFEEEBFF154ED55550144553D55555555555555555555555555555554AAAAAAAAAAAAAAFC553F85554551550D5555555555555555555555555555554AAAAAAAAAAAAAAABF154FE855555555C5555555575DDF555DD75F5FD75555552AAAAAAAAAAAAAAAAFC557FA15555555F55555555DDFDDD55FDDDDDD57555555AAEEEEABC00000088BF153FA93FFC555FD5555555FDDDDD55FDDDF5F57555554ABBBBAAC0000000222FC4FCEBFFFFC55FD5555555DDDDDD55DDDDDDD55555116AEEEEAB00000000088BF3F02BF153F15FD5757575DDDDF555DD75DDFD7554446AFFFFAB000000000222FFC02AFF153C531555555555555555555555555554546AFFFFA8000000000088BF002A4FD54F545555555455555555555555555515116AFFFFA800000000002220002A53D55F0000000554155500000000000000D5456AFFFFA800000000000FFFFFFFFFD55FFFFC554554055515455555555555C5556AFFFFA80000000000FFFFFFFFFF1553FFFFC54000010015455555555555F5556AFFFFA80000000003F15555555555555553F55554055515400000000000F1556AFFFFA80000000003C55555555555555554F15554100015555555555551FD556AFFFFA8000000000F157137574FC75753153D5554515510000000000011FC556AFFFFA8000000000F557CF7477137575FD57D5555511511555555555511FF556AFFFFA8000000000F557337777577575FD57C0000010511550000015511FF156AFFFFA8000000000F557477777577FF53157D5555550111545555545511FFD56AFFFFA8000000000F557577777FF75757557C0000000011515555551511FFC56AFFFFA8000000000F5575773375775755557D5555550151400000000511FFF56A7FFDA9000000000F557574CC75775757557D5000010551451451450510FFF16A5555A9555555555F1555555555555555553D5155511551410410410515FFFD485555215555555553C55555555555555554F15155515551545145145500FFFD515555455555555557F15555555555555553F55155500001555555555555FFFC555555555555555554FFFFFFFFFFFFFFFFFFC551555555555555555555553F335555555555555555554FFFFFFFFFFFFFFFFC5552AAAAAAAAAAAA855555554CCCD5555555555555555555555555555555555554FFFFFFFFEAAAAAA855505553331555555000000000000000000000005501404FFFFFFFFFFEAAAAAA1510155CCCC555555000000000000000000000005401007FFFFFFFFFFC00002A95040557333555555400000000000000000000015405013F00000000FF00000A90010154C0015555555555555555555555555555501405FC000000003F00000A900101550003FD5FD7FD5FD7FF7D7F5557577F5FD0FC04FC000000003F00002A950405550003577577577575757DD5D5575D5D75735317F000000000FFAAAAAA1510155540035775775775757575D55557755D75435013F000FFFFFFFEAAAAA8555055554003FD7577FD757575557F5557D55D5FC1FC5FC003FFFFFFFEAAAAA15555555550031D7577577575755555D557755D5531434FC00FFFFFFFC02A15555555555550030775775775757555D5D5575D5D7437037F0002A00000000A9555555555555403075FD7FD5FD575557F5557577F5FC5FD3F0002A00000000A955555555515540001555555555555555555555555501405FC0002A80000002A1555555555155500017D55555555555D5F5555555D501404FC0000AAAAAAAAAA5555555555055500007755555D55555D7555555555405017F00000AAAAAAAAAA5555555555055540003D5F7D7F5F57D57F7F7D775D4F7F13F00002AAAAAAAAA85555555555015540003177755D5D5775577D75775D317C5FC00002AAAAAAAAA15555A999A501555000303F300F3C03303C0F300C0D0F4F5FC0000AA0000000A855555999650055500000000000000000000000000501405FC0000A800000002A5555655A950055540000000000000000000000000501405FC0000A800000002A55555659950015550000000000000000000000000501405FF0000AA0000000AA5555659A950015555400000000000000000000001505415FFFFFFEAAAAAAAAA8555555956500055555555555555555555555555555555553FFFFFEAAAAAAAAA155559969A500055555555555555555555555555555555554FFFFFFEAAAAAAA8555556666A50000555555555555555555555555555555555555555555555555555555555555         includebin "gfx/robotskiss.bin"
1D65                  twisterlolly
1D65  AAAAAAAAAAAAAAAAAAAAAAAAAABBBBBBFFFFFFFBBAAAAAAAAAAAAAAEEAAAAAAAAAAAAAAAAAAABFFFFFFFFFFFFFFFFFFFFFFFFFFFFFFBBBBBBBBBBBBBBBBBBBBBAAAAAAAAAAAAAAAABBBFFFFFFFFFFFFFFFFFFFFFFFEEEEEEEEEEEEEEEEEEEEEEAAAAAAAAAFFFFFFFFFFFFFFFFFFFFFFFFFFFFFFFFFFFFFFFFFFFFFFBBBFFFFFFAAAAAAAAAFFFFFFFFFFFFFFFFFFFFFFFFFFFFFFFFFFFFFFFFFFFFFFFFFFFEEAA008AAAAAABFFFFFFFFFFFFFFFFFFFFFFFFFFFFFFFFFFFFFFFFFFFEEEAAAAAAAA0000022AAAFFFFFFFFFFFFFFFFFFFFFFFFFFFFFFFFFFFFFFFFFFFFFFFEEEEEEE000000022AAAEFFFFFFFFFFFFFFFFFFFFFFFFFFFFFFFFFFFFFFFFFFFFBBBBBBB0008AAAAAAAAAAAAAAAAAAAAAAAAAAAAAAAAAAAAAAAEEEEEFFFFFFFFFFFFFFFFAAAAAAAAAAAAAAAAAAAAAAAAABBFFFFFFFFFFFFFFFFFFFFFFFFFFFFFFFFFFFFFAAAAAAAABBBBBBFFFFFFFFFFFFFFFFFFFFFFFFFFFFFFFFFFFFFFFFFFFFFFFFFFAAAAA082AAAAEFFFFFFFFFFFFFFFFFFFFFFFFFFFFFFFFFFFFFFFFFFFFFFFFFFFAAAA8A28AAAAAAFFFFFFFFFFFFFFFFFFFFFFFFFFFFFFFFFFFFFFFFFFFFFFFFFFAAAA8AA8AAAAAAAABFFFFFFFFEAAAAAABBFFFFFFFFFFFFFFFFFFFFFFFFEEEAAA52AAA2A2AAAAAAAAAAABFFFEAABBBBBBBABBBFFFFFFFFEEAAAAAAAAAAAAAAAAA552AA88AAAAAAAAAAAAAAEFFFFFEEEEFFFFFFFEEEAAAAAAAAAAAAABBBBBBBBBB554AAA2AAAAAAAAAAAABFFFFFFFFF000003FFFFFFFEEEEEEEEEEEEEEEEEEEEEE002AAAAAAAAA082AABFFFFFFFFF0000000003FFFFFBBBBBBBBBBBBBBFFFFFFFF0AAAAAAAAAA8A28AFFFFFFFFFF000000000003FFFFFFFFFFFFFFFFFEEEEEEEEEAAAAAAAAAAA8AA8AAABFFFFFF00000000000003FFFFFFFFFFFFFFFFFFFFFFFFFAAAAAAAAAAAA2A2AAAAAAAFFC00001FFFD00010FFFFFFFFFFFFFFFFFFFFFFFFF2AAAAAAAAAAA88AAAAAAAAAB00007FFFFFF40043FFFFFFFFFFFFFFFFFFFFFFFF8AAAAAA0052AA2AAAAAAAAAF0001FFFFF33D0053FFFFFFFFFFFFFFFFFFFFFFFF8AAAA8011554AAAAAAAAAAA80007FFFFFCCF4050FFFFFFFFFFFFFFFFFFFFFFFF2AAA804555554AAAAAAA08280001FFFFFF3D0050FFFFFFFFFFFFFFFFFFFFFFFFAAAA0115555552AAAAA8A28800007FFFFFF40140FFFFFFFFFFFFFFFFFFEEAAAAAAA804555555552AAAA8AA88000001FFFD000100FFFFFFFFFFFBBBBBBBBAAAAAA800111555555555552A2A2B0000000000000401FFFFFFFEEEEEEEEEEEEEEEEE8044445555555555555288AA4000000000000005FFFFFFFBBBBBBBBBBBBBBBBB01111115555555555554A2AA1000000000000015FFFFFFFFFFFFFFFFFFFFEEEE000000455555510000000AAA4400000000000155FFFFFFFFFFFFFFFFFFFFFFFF000000000000000000002AAA1110000000001555FFFFFFFFFFFFFFFFFFFFFFFFAAAAAAAAAAAAAAAAAAAAAAAAC445500000155555FFFFFFFFFFFFFFFFFFFFFFFFAAAAAAAAAAAAAAAAAAAAAAAA8111555101555557FFFFFFFFFFFFFFFFFFFFFFFF802800A02800A8008A8800AA0045555541555553FFFFFFFFFFFFFFFFFFFFFFFF8A88AA8A8A8AAA8A8A88AAAA0011555545555540FFFFFFFFFFFFFFFFFFFFFFFF8A88AA8A8A8AAA8A8A88AAAA0004555555555400FFFFFFFFFFFFFFFFFFFFFFFF8028028A8A8AAA8A800802AA0000555545554000FFFFFFFFFFFFFFFFFFFFFFFF8A88AA800A8AAA8A8A88AAAA0000010001500000FEEEEEEFFFFFFCCCFFFFFFFF8A88AA8A8A8AAA8A8A88AAAA1000000000400000FBBBBBBBBFFFC5554FFFFFFF8028008A8A8AAA8A8A8800AA0400000000400003EEEEEEEEFFF1555554FFFFFFAAAAAAAAAAAAAAAAAAAAAAAA1100000000000003FFFFFFFFFFC55555554FFFFF8A8800A028008A8800802AAA3444400000400017FFFFFFFFFF1555555553FFFF8A88AA8A8A8A8A88AA8A8AAA3111555400000157FFFFFFFFFC5555555554FFFF8888AA8A8A8A8A88AA8A8AAA3044555550455557FFFFFFFFF155555555553FFF8888028A8A8A800802802AAA3C1115555455555FFFFFFFFFF555555555557FFF8888AA800A8A8A88AA8A2AAA3C0445555455555FFFFFFFFFC555555555554FFF8888AA8A8A8A8A88AA8A8AAA3C0011155555550FFFFFFFFFD555555555555FFFA228008A8A8A8A88008A8AAA2C00000054500003FFFFFFFF15555555555553FFAAAAAAAAAAAAAAAAAAAAAAAA2C00000004000003FFFFFFFF55555555555557FF8A8A028008A8AAAAAAAAAAAA2CC0000004000003FFFFFFFF55555555555557FF8A8A8AA8A8A8AAAAAAAAAAAA3CC400000400000FFFFFFFFF15555555555553FF888A8AA8A8A8AAAAAAAAAAAABFF100000000003FFFFFFFFF15555555555553FF888A8AA8A800AAAAA56A56AABFF445000000015FFFFFFFFF05555555555543FF888A8AA8A8A8AAAA955955AA2FF1105555515557FFFFFFFF00555555555403FF888A8AA8A8A8AAAA5559556AA8FC445555515557FFFFFFFF00044444444003FFA22A02A8A8A8AAAA5555556AAFF011155555555FFFFFFFFFC000111110000FFFAAAAAAAAAAAAAAAA5555556ABFFC00155551550FFFFFFFFFC000004400000FFFAAAAAAAAAAAAA0825555556ABFFF00000000000FFFFFFFFFC000000000000FFFAAAAAAAAAAAA8A28955555AAAFFF00000000003FFFFFFFFFF000000000003FFFAAAAAAAAAAAA8AA8A55556AAAAAFC000000003FFFFFFFFFFFC0000000000FFFFAAAAAAAAAAAAA2A2A9555AAAAAAA8A8A8002CFFFFEAAAAAAAAAAAAAAAAAAAAAAEEEEEEEEEEEEECCEEE557BBBBBBB8B8AAAAEFFFFEAAAAA8880000000000222AABBBBBBBBBBBBBB3BBB95EEEEEEEEEEEAEAAEFFEAAAAAAAAAAAAAAAAAAAAAAAAAFFFFFFFFFFFFFFFFFFF7FFFFFFFFCFFBBAAEFFFFFFEAAAAAAA88800000000022FFFFFFFFFFFFFFFFFFFFFFFFFFFFCFFEEEEEFFFFFFAAAAAAAAAAAAAAAAAAAAAAF03CFFF03C03F03C00C03C00F03CFCFEBBAEFFFAAAAAAAAA8880000000088AAACFCCFFFCFCFCCFCFCFCFCCFFCFCC30FEFFEFBFFFFFFAAAAAAAAAAAAAAAAAAAAACFFCFFFCFCFCCFFFCFCFCCFFCFCCCCFEFBAFBFFAAAAAAAAAAAAAAAAAAAAAAAAAF03CFFFCFC03F03FCFC03C03CFCCFCFEFFABBFFFFEAAAAAAAAAAAAAAAAAAAAAAFFCCFFFCFCFFFFCFCFCF3CFFC00CFCFEFBBBBFFFFFFFEAAAAAAAAAAAAAAAAAAACFCCFFFCFCFFCFCFCFCFCCFFCFCCFCFEFFBBBFFFFFFFFAAAAAAAAAAAAAAAAAAAF03C00F03CFFF03FCFCFCC00CFCCFCFFBBFBBFFFFFFAAAAAAAAAAAAAAAAAAAAAFFFFFFFFFFFFFFFFFFFFFFFFFFFFFFFFBFBBBFFFAAAAAAAAAAAAAAAAAAAAAAAAFFFFFFFFFFFFFFFFFFFFFFFFFFFFFFFFBFFAFFFFFFFAAAAAAAAAAAAAAAAAAAAAFFFFFFFFFFFFFFFFFFFFFFFFFFFFFFFFBFBAFFFFFFFFFFAAAAAAAAAAAAAAAAAAFFFFFFFFFFFFFFFFFFFFFFFFFFFC457FBFFBFFFFFFFFFFEAAAAAAAAAAAAAAAAAFFFFFFFFFFFFFFFFFFFFFFFFFFF1155FEBEFFFFFFFFFFFEAAAAAAAAAAAAAAAAAFFFFFFFFFFFFFFFFFFFFFFFFFFF4457FFEBFFFFFFEEEAAAAAAAAAAAAAAAAAAAAFFFFFFFFFFFFFFFFFFFFFFFFF3FDFFFFFFFFFFFFFFFFFEAAAAAAAAAAAAAAAAAAFFFFFFFFFFFFFFFFFFFFFFFFFFFFFFFFFFFFFFFFFFFFFFFFAAAAAAAAAAAAAAAAFFFFFFFFFFFFFFFFFFFFFFFFFFFFF117FFFFFFFFFFFFFFFFEAAAAAAAAAAAAAAAFFFFFFFFFFFFFFFFFFFFFFFFFFFFC455FFFFFFFFFFFFFFFFEAAAAAAAAAAAAAAAFFFFFFFFFFFFFFFFFFFFFFFFFFFFFD1FFFCFFFFFCFFFFFFEAAAAAAAAAAAAAAAAF3F3F3F3F3F3F3F3F3F3F3F3F3F3F3F3F3F3F3F3F3F3AAAAAAAAAAAAAAAAAAAAFFFFFFFFFFFFFFFFFFFFFFFFFFFFFFFFFFFFFFFFFEAAAAAAAAAAAAAAAAAAAAAA3F3F3F3F3F3F3F3F3F3F3F3F3F3F3F3F3F3F3F3F3F3F2AAAAAAAAAAAAAAAAAAACCCCCCCCCCCCCCCCCCCCCCCCCCCCCCCCCCCCCCCCCCCCCCCCAAAAAAAAAAAAAAAA333333333333333333333333333333333333333333333333332AAAAAAAAAAAAADDDDDDDDDDDDDDDDDDDDDDDDDDDDDDDDDDDDDDDDDDDDDDDDDDCAAAAAAAAAAAAA7777777777777777777777777777777777777777777777777AAAAAAAAAAAAAAADDDDDDDDDDDDDDDDDDDDDDDDDDDDDDDDDDDDDDDDDDDDCAAAAAAAAAAAAAAAAAAA5555555555555555555555555555555555555555554AAAAAAAAAAAAAAAAAAAAA555555555555555555555555555555555555555555555555552AAAAAAAAAAAAA55555555555555555555555555555555555555555555555555552AAAAAAAAAAA555555555555555555555555555555555555555555555555555552AAAAAAAAAA         includebin "gfx/twisterlolly.bin"
2965                  youwouldnt
2965  EEAAAB0000015515555554555555555553F15555555550000000032AAAAAAAAABBABFCC00000140004455554551445553D0C45555555400000CCC0CFEBFCC100EEABF300000014115555555555555554C5435555555551000000033FBBF30543BABBFCC00300144455555555555555531103555555554440000000CFFACCC54CAABBF30000001411155555555555554844035455555511000000033FFBF33133AABBBCC003001044555555555555552E100C555555554440000000CFFAFCC0CCAAFBEF000000101115555555555554B380315555555511000000033FFBBF3333ABFBBCC00300104455555555555552CCE0C5555555554440000000CFFAEFF3FFAAAAAB30CCC010005115551100454B33E30555155511403300AEEEEAAAAAAAAAABFFFCC0000010444555555545556CCFF845555555554442AAABBBAAAFFFF2FEAFFFF330000000111555555545556F3FE14555555555112AAAAAEEEAAAFFF27FBFFF0CC0000010445555555545556FFF8545555555554AAAAAABBBAAAAAFF2FEBFF3F330000000111555555555554BFE055555555554AAAAAAAEEAAAAAABFEFFBE3CCCC00000104455555555555552A845105555552AAABFEAABFFFAAAAAF2FFFFF3F330000000111555555555554401455555552AAAAA8A3FFC03FFFAAABEFFFFFCFCC00000000455555555555555055555554AAAAAAA8EA800AAAFFFAABEFFEEEEAB30CCC00000445155511115550545154AABAEEEEFCBAA8AFAAAAFEEEAAAFFFBFCCC000004044555555555555515552AAAAAAAAABC2CFFCA8EAAABFAAFFBFFFFFF30000051111155555555555514AAAAAAAAAAAFD122AA8EA3FFFFFEABFEFFFBFCCC000054044555555555554A2AAAAAAAAAABB4443AAAA3AAAAAABEABFBFBFFFF30000150011155555554AAAAAAAAAAAAABFF81102AFEA8EAABFAFFABFEBFFBFCCC00001004445554AAAAAAAA2AAAAAABFC7D84442BABAA2AAEAEAFAAFFEFFFFF330000000112AEEEAAAAAAAAAAAABEFC555D8110AEAAEA3ABAABABEAFEFFFBFFCC00002AAAAAABBBBBBAAAAA2FFAD555555D0440A2AA2A8FFAABABEAFFAEEEEAAAAAAAAAAAAEEEEEEEEEFFFFF148115555159000A2AA2ABABAABEBEBFAFFFFFBFFFFFFFFFFEFFBFFFFFF15551559555555544440F3AB3FCFFEAFFFFFFFFFFFFF33330F001001585555555555555155555551100000FC00037FFFFFFFFFFF00000D540F00AAAAA9AAAAA84FFFFC7FFFFF4AAAAA0AAAAA80C557FF0FF0FFFC000031570F01AAAAA9AAAAAA7FFFFF7FFFFF6AAAAA8AAAAA831557FC03C0FFFC00003D540C05AAAAA9AAAAAA7FFFFF7FFFFF6AAAAA8AAAAA8CD557FC03C03FFC0FC0F1570C01FEABECBEFFAF7AFBFC3FEEBF7EBBFA8AAFBBC31557FC03C03FFC0FF3FD54CC0030A965AA34EA7F5655577FDD6A884E8AAC080CD555FC03C03FACEFF0FD13000000F965AA742A7F5755577FDD6A88028AA0083341D0A8CC302AFC03F3FD54CC0030A965AA556A7F5655557FD56A84028AA0080C55F5F000003FFC03FFFD57000004A855AA756A7F5755577FD12A98028AA0003355F5F000000EFC03FBFD57C00000A965AA546A7F5555557FD46A80028AA108CF55F5F000003BFC03FFFD57300000A855AA552A7F1755557FD12A80028AA0033355F5F000000EFC03FFFD54CC0000A811AA446A7FC515557FD46A80028AA000CF57F5700C303FFC00003D57300000A811AAAAAA3FFFFC557FD12A82AA8AAAAB3D5755700C303FFF00000D54CC0000A811AAAAAA7FFFFF557FD42A8AAA8AAAA8CD5555700C30FEAF82CCB4433330CCAC00BBAAAB7EAEFA407AC42E8AAA8AAAABAD1401330CFFFAFFF3FF0D57CCCC00A811AAFFBC5FFFFF557FC02A8EAFCAAFBCFD55FD7C0FFCFEFFF3FF0D57FF3300A811AA748015551F557FC02A83A80AA133FD5DFD5C0FB03BFFFFFC0D555554AAAAA8AA748005503F453FC02A80EA0AAAAAB55FFD5C0EF03EFC00000D555557AAAAA8AA44003FFFFF453FC02A80FA8AAAAAB55EFD5C0FB03BFF00003D555554AAAAA8AA34013FFFFF453FC02A80CE8AAAAAB55FFD5C0EF03EFFCFAFFFFFF5FFFAFEACEB44013FFFFC453FC03AC0C3FFAB32FDBFFFFF3FFCFBFFCFAFFEEEFDCCCAC0A028140101F0D5450CC00A4000CCE80FFEAFEEAE2EEEEEAAAAAAAAAAAAA30B309020440101F0D5450C000840033028AAAAAAAAAAAAAAAAFFFBAFFFFFEEBCC8CC9060040001D015050C0008400CCCECAEEEBFFEFAEEEFFFFFBBEFFFFFFFBF03339020440101D0D505040008403330ECAABBBFDEFAABBBFFBFFAEEEFFFFEBFC8CC8000040001D014010800084CCCCCCCAEEEEEEEFAEEEEEFFFFAABBBFFFFBFC3331300040101D0040000000070333FFCAAABAABBBAAAABBBFEFAEEEEFFEEBFC0CC80C0040001D0040100000CCCCCFCCCAEEEAEEEEAEEEAEEFFFBBABBBBBBBFCFF31300040000D00400000333333FFFFCBBABBBABBBBABABBFFFAA22222CEAFFFFC00C004000110000100C0CCCCFFFFCFAEEEAEEEAAEEEAEAAAAA2222220AAAAAAA133304033010040033333332AAAAAAAAAAAAAAAAAAAAAAAAA20144400FFFFFEF00CCC4C0CC10CCC00CC0CCCFFEFFCCFFFFEFFFFFFFFEFFAA200445444FFFFFEF133307033313333033333333FEFFFFFF7FEEFCFFFFFEFFE2000155554FFFFFEF03FCC4C0CC10CCCCCCCCCFCFFEBB88BBBBEFF03FFCFEEBA0000455554FFFFFEF03FF0333330333333333FF33FEAAEEAAEEEFF07FC03EFFE8000115554FFFFFAF03FFC3CCCCCCCCCCCFFFFFCFFEBBB8BBBBAFFC0F00FEFFB8000445554EEEEEEFCFFFC3FEF333333FEFFFFFFFFEEEAEEEAEEAFBCFCFFEEBEE000115554BBBBBAC003300CEFCCFFFFFEEEEFFCFFEBBBABBBAAFFFCFCFFEFFAA000445554AAAAAAAAAAAAAAAAAAAAAAAAAAAAAAAAAAAAAAAAAAAAAAAAAAAAAFE000111554EBFFF30003BC3FFFCCFBFFFFFFEEBCFFFFFFCBFFBFFFBBBFFFFFFFE00044554F3BFFFFF03FBF3FFFF3FBBFFFFFBBBBFFFFFFFBFFFFFEEEBFFFFFFEB80110FC714BFEFFFCFFAEEEFFCCFAEEFEEEEEAEFFFFFFFBFFEFFFFFAEEEEEEFF8004313C553FFBEFFFFAABBBFF3FBBBBBBBBBBBBFFFFFBAFFFFBFFFBBBBBBBAE8010C54C487FFFFFCFFAEEEEFCCFAEEEEEEEEAEEEEFEEEBFEFF3FFFAEEFEEEFF800714877B7FFFFFFFFBBABBFF3FBBBBBBBABBBBBBBBBBBFFFC0FFFBBBBBBBFFE01347B62D3FFFC53FFAEEEAC003AEEEEEEEEAEEEEEEEEBFFFFCFFFAEEEEEEAAA00612D200EAAAA152AAAAAAAAAAAAAAAAAAAAAAAAAAAAAAAAAAAAA8A0AAAAFFE010800B03BFFFED54FFFFFEFFFFCFBAAFFEEEFFEEBBBBBBBFEFBBB080BEEFBFE0042020EC3FBFEC553FFFFEFFFFFFEEEFFFBBFFFAAAEAAEEFEEEE8202EEFFFFE0110A85554FFFC55555555555555555555555555555555553EBBBB0083AAFBF83045555554FFC5555555555555555555555555555555555552EEACC002EFFFF8FD11554512FF15555555555555555555555555555555555554ABBB30BAAEFFF8C04555133BFF55555555555555555555555555555555555555FBFCC0CFEFBFE80301555553FC559955555555555565595525555555555555553FAF3233EEFAAA0C05555552A9558955555555555565595585655555555555556AAAAAAAAAAABEA005111113FD55212199599921996529A155A95555555555556AAAAAAAAAAAABA01170444BFD556589895889899965999955215555555555557ABAABAEBABBAAA0454FFAAFE9556521215221212165299955495555555555556AEEAEEEEEEBBFA011444FFFB9555555555555555555555555555555555555556ABAABAEBABBBFA004513BBBB9555955555565555559555555555555555555557AEBAEBAEAEFBBA0110FEBAAB9555955555565555559555555555555555555556EEEEEEEEBBAAAA0043AAAAAA955292189A1652169295295292925522169A1557AEBAEBAEEEAAAA0003AAEAAA9559989A98965899999599595998558899989556ABAABAAAAAAAAE00022BFAAA855292121996521A9295A9529A9949999A999952EEEEEEEEEFAA8B800B8FFEAAA55555555555555555555555555561555555555AEBAEBAF087AA12EAAECAAAAAA04444444444444444444444444444444444444AAAAAAAC011A845BBBBA2AAAAA81111111111111111111111111111111111112EAAAAAB8004F815AEFFF7FBFAAA844444444444444444444444444444444443BFAFBAEEE003A0457FFFF7FBEAFAEBEAFBBBFBFAAABBBBBBBBBBBBBBBBAEEEEEAEAEEEFBAC0EF0157FFFF3BAFBABBBBAEBBBFBEAEEEEBAEBBAEBAEBAEFAEEBAEAFBEBAEEEB3A         includebin "gfx/youwouldnt.bin"
3565                  dragonraccoon2
3565  8080808080808080AF80AF80AFAFAFAFAFAFAFAF80AF80AF808080808080808080808080AFAFAFAFAFAFAFAFAFAFAFAFAF60AFAFAF60AF606060AF6080808080808080AFAFAFAFAFAFAFAFAFAFAFAFAF60AFAF60AF6060AF60606060608080808080AFAFAFAFAFAFAFAFAFAFAFAFAF60AF60AF6060BFBF6060606060608080808080AFAFAFAFAFAFAFAFAFAF6060AF6060AF6060BF8080BF606060606080808080AFAFAFAFAFAFAFAFAFAF60AFAFAF60606060BF80EFEF80BF60BFBFBFBF808080AFAFAFAFAFAFAFAF6060AFAF60AF60606060BF80EFEF80BFBF80808080808080AFAFAFAFAFAFAFAFAF60AF60606060606060BF80EFEF80BF8080CF2080808080AFAFAFAFAFAF6060AF606060606060BFBF60BF80EFEF808080CF20CF20808080AFAFAFAFAFAF606060AF60606060BF8080BF80EFEFEF8080CF20CF20CF808080AFAFAFAFAFAF60606060606060BF80BFEF8080EFEFEF80CF20CF20CFCF808080AFAFAFAFAF80BFAF6060606060BF80EFBF8080EFEFEFEF80CF2080CFCF808080AFAFAFCFAF80AFAF6060606060BF80BFEFBF80EFEFEFEF80208080CFCF8080AFAFAFCFAF808080BF60606060202080EFBFEF8080EFEFEF80CF8080CFCF808080AFAFAFCFCFCF8080BF606020208080BFEFBFEF80EFEFEF80208080CFCF8080AFAF80AFAF8080808080BF2020808080EFBFEFEF8080EFEF80808080CFCF80808080AF80CFCFCFCFCF80BF2080808080BFEFBFEFEF80EFEF80808080CFCF8080AFAF80AF208080808080208080808080EFBF80EFEF80EFEF80808080CFCF8080AFAFCF80802020CFCF80808080CF8080BFEF80EFEF80EFEF80808080CFCF8080AF8080CFAF8080808080808080808080EFBF80808080EFEF80808080CF808080AFAFCF80808020CFCFCF80CFCFCFCF80BFEFBF808080EFEF80808080CF80BF80AF80AFCF808080808080808080808080EFBFEF808080EFEF80808080CF80BF60AF80CF8080802020CFCFCFCFCFCF202080EFBFEF8080EFEF80808080CF80BF80AF8080CF80808080808080808080808080BFEFEF80CF80EF808080CFCF80BF60AF8080808080802020CFCFCFCF20208080EFBF8020202080808080CFCF80BF80AFBF80CF80808080808080808080808080BFEF8020202080208080CF8080BF60AFBF8080808080802020CFCFCF20808080EFBF8080202020208080CF80BF6060AFBF80CF80808080808080808080808080BFEF8080802020CFCF80CF80BF6060AFBF8080808080808080CFCF2020808080EF808080802020CFCFCFCF80BF6060AFBF80CF808080808080808080808080808080808080802020CFCF8080BF606060BF8080CF80808080CFCFCF20808080808080CF2080802020CFCF80BF606060AFBF80CF808080808080808080808080808080202020808020CFCF80BF6060606060BF80CF808080CFCFCF2080CFCF80808080CFCF2080802020CF80BF6060606060BF8080808080808080808080808080808020202020802020CFCF80BF6060AF60BF80CF808080CF802080CFCFCF80808080CFCFCFCF208020CFCF80BF60606060BF8080808080808080808080808080808020202020202020CFCF8080BF606060BF80808080CFCF2080CFCFCFCF80808080CFCFCFCFCFCFCFCFCFCF80BF60606060BF8080808080808080808080808080808020202020202020CFCF8080BF606060BF8080CFCF2020CFCFCFCFCF8080808080CFCFCFCFCFCFCFCFCFCF80BF6060BF8080808080808080808080808080808080CF202020202020CFCFCF80BF6060BF808080CFCF20CFCFCFCFCFCF80808080808080CFCFCFCFCFCFCFCF808060BF808080808080808080808080CF808080808080808020202020CFCFCFCF8060BF8080CFCFCF20CFCFCFCF808080808080808080CF8080CFCFCFCFCFCFCF8060BF80808080808080808080808080808080808080CF8080202020CFCFCFCFCFBF808080CFCF2020CFCFCF808080CF8080808080CF808080CFCFCFCFCFCFCFCFBF80808080808080808080808080CF8080808080CF80808020202020CFCFCFCF808080CFCFCFCFCFCFCF80CF8080CF8080808080CF8080CF8080CFCFCFCFCFCF8080808080808080808080CF808080CF80808080CFCF80CF8080202020CFCFCF802080CFCFCFCFCFCF8080CFCF8080CF8080808080CFCFCF80808080CFCFCFCF808020808080808080808080CF80CFCF8080808080808080808080202020CFCF8020CFCFCFCF202080808080CFCFCF808080808080808080808080802020CFCF208080808080808080808080808080808080808080808080808080802020CFCF8020CFCFCF2020808080808080808080808080808080808080808080802020CF80802080808080808080808080808080808080808080808080808080802020CF8020CFCF2020808080808080808080808080808080808080808080808080202020808080808080808080808080808080808080808080808080808080808020208020202020208080808080808080808080808080CF80808080808080808080208080CF808080808080808080808080CF80808080CF808080808080808080802080CF202020808080808080808080CFCF80808080CF8080808080808080808020CF80CF8080808080808080808080CFCF80808080CFCF8080808080808080808080CF202080808080808080808080CFCF80808080CFCF80808080808080808080CF80208080808080808080808080CFCF8080808080CF8080808080808080808080CF2080808080808080808080CFCFCF8080808080CFCF808080808080808080CF808080808080808080808080CFCF8080CF808080CFCF80808080808080808080CF8080808080808080808080CFCF80CFCFCF808080CF808080808080808080CF802080808080808080808080CFCF8080CF80808080CF80808080808080808080CF2080808080808080808080CFCF80808080808080CF8080808080808080CFCF80CF80808080808080808080CFCF80808080808080CF80808080808080808080CF2020808080808080808080CFCF80808080808080CF8080808080808080CF8080CF8080808080808080808080CF808080808080CFCF80808080808020CF8080CF202080808080808080808080CFCF8080808080CF80808080808080CF20AF2080CF8020808080808080808080CFCF8080808080808080808080808020CF80802020CF20208080808080808080CFCF80808080808080808080808020CFCF808080CF80CF8080808080808080808080808080808080808080808080CF20AF80802020CF202080808080808080808080BFBFBFBF80808080808080CF20CFCF8020808080CF8080808080808080808080BFBFBFBF8080808080808020CF20AF80802020CF20CF208080808080808080BFBFBFBFBFBF808080808020CFCFAFCF8080802080CF80CF8080808080808080BFBFBFBFBFBF8080808080CF20CFAFAF808020202020CF202080808080808080CFBFBFBFBFCF80808080CFCFCFAFAFCF80808080802080CF8080808080808080CFBFBFBFBFCF8080802020CFAFCFCFAF808020202020CF20CF20808080808080CFBFBFBFCF8080808020CFAFCFAFCFAF80808020808080CF80CF80808080808080CFBFBFCF80808080CF20CF20AFCFCF8080202020202020CF2020808080808080CFBFBFCF80808020CFAFCFAFCFAFAF808080808020808080CF80808080808080CFBFBFCF80808020CF20CFAFAFAFAF8080208020202020CF20CF20808080808080CFCF8080CF20CFCFCFAFAFCFAFCF808080208080802080CF8020808080808080CFCF802020CF20CF20AFAFAFAFAF80802080202020202020CF2020CF20CF20808080CFCFCFCFAFCFCFAFCFAFAFAF808080808020808080CF80CF80208080802020CF20CF20CF20CFAFCFCFAFAFAF80808080208020202020CF2020CF20CF20CFCFCFCFCFCFCFCFAFCFCFAFAFAF808080802080808020808080CF8080802080CF20CF20CF20AF20CFCFCFAFAFAF8080808080208020202020CF20CF2020CFCFCFCFCFCFCFCFCFCFAFCFAFAFAFAF808080808080208080802080CF8020808080CF20CF20CF20CF20AFAFAFAFAFAF808080808020802080202020202020202020CFCFCFAFCFAFAFCFCFAFAFCFAF808080808080808080208080802080808020808020CF20CF20CFAFAFAFAFAF8080808080808080802080208080202020202020CFCFCFAFCFAFAFAFAFAFAFAF808080808080808080808080208080802080808020CFCFAFAFAF80AF80AF808080808080         includebin "gfx/dragonraccoon2.bin"
4165                  cowadragon
4165  CF9FCF9FCFCFCFCFCFCFCFCFCFCFCFCFCFCFCFCFCFCFCFCFCFCFCFCFCFCFCFCF9FBFBFBFBFBFCFCFCFCFCFCFCFCFCFCFCFCFCFCFCFCFCFCFCF9FCFCFCFCFCF9F9FBFBF9FCF9FCFCFCFCFCFCFCFCFCFCFCFCFCFCFCFCFCFCFCFDF9FCFCFCF9FDF9F9FBFBFBFCF9FCFCFCFCFCFCFCFCFCFCFCFCFCFCFCFCFCF9FDFDFCFCFCFDFDF9FBFBF9FCF9FCF9FCFCFCFCFCFCFCFCFCFCFCFCFCFCFCFCFDF8FDFCFCFCFDF8F9FBFBFBFBFBF9FCF9FCFCFCFCFCFCFCFCFCFCFCFCFCFCFCFDF8FDF9FCF9FDF8F9F9F9F9F9F9FCF9FCF9FCFCFCFCFCFCFCFCFCFCFCFCFCFCFDF8F8FDFCFDF8F8F9F9FEFEFEFEF9FCF9FCF9FCFCFCFCFCFCFCFCFCFCFCFCFCFDF8F8FDFCFDF8F8F9FEF9FEF9F9F9F9FCF9FCF9FCFCFCFCFCFCFCFCFCFCFCFCF9FDF8FDFCFDFDF8F9F9FEFEFEFEF9F9F9FCF9FCF9FCFCFCFCFCFCFCFCFCFCFCFCFDFDFDFCFDF8F8F9F9F9F9F9F9F9F9F9F9FCF9FCF9FCFCFCFCFCFCFCFCFCFCFCFDF8FDF9FDF8FDF9FBF9F9F9FBF9F9F9F9F9FCF9FCF9FCFCFCFCFCFCFCFCFCFCFDF8FDFAF8F8F8F9FBF9FBF9FBF9F9F9F9F9F9FCF9FCF9FCFCFCFCFCFCFCFCFCFDF8FDFDF8F8F8F9FBFBFBFBFBF9F9F9F9F9F9F9FCF9FCF9FCFCFCFCFCFCFCFCFDFDF8FDFDF8F8F9F9F9F9F9F9F9F9F9F9F9F9F9F9FCF9FCF9FCFCFCFCFCFCFCF9FDF8FDF8FDFDF9F9FEF9FEFEF9F9F9F9F9F9FDFDFDFDFDF8FDFCFCFCFCFCFCFCFDF8F8F8F8FDF9FEF9FEF9F9F9F9F9F9F9FDFDF8F8F8F8F9F8FDFCFCFCFCF9FDFDF8F8F8FDFDF9FEFEFEFEFEF9F9F9F9FDFDF8FDF8F8F9F8F9F8FCFCFCFCFDF8FDFDFDF8FDFDF9F9F9F9F9F9F9F9F9F9FDF80AF8F8F8F8F9F8F8FDFCFCFCFAF8FDF8FDF8F8FDF9FBF9F9F9F9F9F9F9FDF80DF80808F8F8F8FAF808FDF9FCFDF8F8FDFDFDF8FDF9FBFBFBFBFBF9F9F9F80DFBFDF8FDF8F8F80808F80DFCF9FAFDFDF8FDF8FDFDF9FBF9F9F9F9F9F9F9FDFBFEFBFDF8F8F8F8FDFBFDF809FCFDF8FDFDFDFDF8FDF9F9F9F9F9F9F9F9FDF8FBFEFBF8FDF8F8FDFBFEFBFDFDF9FAFDFDFDFDF8FDFBF9FEF9FEFEF9F9F9FDFBFEF9FEFBFBFBFBFBFBFEFBFBFDFCF9FAFAFDFAFDFAFBF9FEF9FEF9FEF9F9FBFBF9FCF9FBFEFEFEFBFBF9FEFEFBF9FCFBFDFAFDFAFBFEF9F9FEFEF9FEF9F9FBFBFCF809FBFBFBFBFBF9F809FEFEFBF9FBFAFDFAFAFBFBF9F9F9F9F9F9F9FBFBF9FCFAFCF9FBFAFBF9FCFAF9F9FBFBF9FBFBFBFBFBFEFEF9F9FBF9F9F9F9FAFBF9FCF80CFCFEFBFEFCFCF80CF9FEFAF9F9FBFBFEFEFEFBF9FBF9FBF9F9F9FBFBFBFCF9FCFEFEFEFEFEFCF9FCFEFBFBFAF9FBFEFBFEFBFBF9FBFBFBFBFBF9FAFBFEFCFCFCFEFBFBFBFEFEFCFEFEFBFAFBFBFBFBFEFEFBFAF9F9F9F9F9F9F9F9FBFEFBFCFEFEFEFEFEFEFEFEFEFBFAFBFAFBF9FBFBFBFBFDF9FEF9F9F9FEF9F9FAFBFEFEFEFBFBFBFBFBFEFEFBFAFDFAFBFBF9FAFDFAFDFAF9FEFEFEFEFEF9F9FDFAFBFBFBFAFDF80DFAFBFBFAFDFDFCFAFBF9FDFAF8FDFDF9FEF9F9F9FEF9FDFAFDFAFAFAFDF8FAF8FDFAFAFDF8FDFDFBFBF9FAFDFDF8FDF9F9F9F9F9F9F9FAFDFDFDFDFDF8FDFAF8F8F8FDF8F8F8FDF9FBF9FDFDF8FDFDF9F9F9F9F9FBF9FDFDFDFDFDFDFDF8FDF8F8F8F8FDF8F8FDF9FBFBFAFDFDF8FDF9F9F9F9F9FBF9FAFDFDF8F8FDF8F8FDF8F8F8F8F8F8F8FDF9FBFAFDFDF8FDF8F9FBFBFBFBFBF9FDFDF8FAFDF8FDF8F8F8F8F8F8F8F8F8FDF9FBFBFAFDF8F8F8F9F9F9F9F9F9F9FAFDFAFCFAFDFDFDFDFDFDFDFDF8F8F8FDF9FBFAFDFDF8F8F8F9FEF9FEFEF9F9FDFAF8FAFCFAF808080808080AFDF8F8FDF9FBFBFDFDF8F8F8F9FEF9FEF9FEF9FAFDFAF8FAFCF9F9F9F9F9F9F9FAF8FDF809FBFAFDFDFDF8F8F9F9FEFEF9FEF9FDFAFDFDF8FAFCFCFCFCFCF9FAFDF8FDFAF80BFBFDFDF8F8F8F9F9F9F9F9F9F9F80DFAF8FDF8FAF80808080AFDF8F8FDF80DFBFAFAFDFDF8F8F9F9F9F9F9F9F80AF80DFAF8FDFDFDFDFDFDFDF8F8FDFAFAF80BFBF9FDFDF8F8F9F9F9F9F9F9FAF80AF80DFAF8FDF8FDF8FDF8FDF8FDF8080DFBFAF9FDFDF8F8F9F9F9F9F9FAF808080AF80DFAF8FDF8FDF8FDF8FDFAF80AF8080BF9FDFDF8F8F9F9F9F9F9F80DF808080AF80DFDF8FDF8FDF8FDFAF808080AFBFAF9FDFDF8F8F9F9FDF9FAFAFDF8F808080AF80DFDFDFDFDFDFDF808080808080BFAFDFDF8FDF9FAFDF8F80DFDF8F80808080AF80DF80DFDFAF80AF808080808080BFDFDFDF8F9FDFDF8FAFAFDFDF8080AF8F80AF80AF80AF80AF808080808080BFAFDFDF8FDF9FAFDFDF80DFAFDF80AFDF8FAF80AF80AF80AF8080808080808080BFAFDFDF8F9FDFDF8FAFAFDFDF80DF8F8F80AF80AF80AF8080808080808080BF80DFDF8FDF9FAFDFDF80AFAFAFAFDF8FDFAF80AF80AF8080808080808080808080AFDFDFDFAFDFAFDFAFAFDFDFBFBFBFBFBFBFBFBFBFBFBFBFBFBFBFBFBFBF80BFBFBFBFBFBFAFDFDFBF80AFAFEFBFEFBF9F9F9F9F9F9F9FBFBFEFBFEFBFEF80EFBFEFBFEFBFAFDFDFBFBFDFBFBFBF9F9FDFEFEFEFEFEFDF9F9FBFEFBFEFBF80BFEFBFDFBFEF80AFAFEFBFAFBFBF9FEFEFEF8FBFBFBFBFEFEFEF9FBFEFEFEFEFEFEFEFDFEFBFAFDFDFBFEFBFBF9FEFBFBFBFBFBFAF9FBFBF80BFEF9FBFEFEFEFEFEFEFDFEFEF80AFAFEFBFBF9FEFBFBF9FBFDFBFBFBFBFBFBFBFBFEF9FBFEFEFEFEFBFDFEFBFBFDFBFBFEF9FDFBFAFBFBFDFDFDFBFBF8FBFDFBF9FBFDF9FEFEFEFEFEFDFEFEFBFAFBFEFBF9FEFBFBFBFBFBFDFBFBFBFBFDFDF8FBFBFEF9FBFEFEFEFBFDFEFBFEFBFEFBF9F9FBFBFBF9FBFBFBFBFBF9FBFBF8FBFBFBFBF9F9FEFEFEFEFDFEFEFBFEFBFBF9FEFBFBF9FBFBFBF8FBFBFBF9FBFBFBFBFBFBFEF9FEFEFEFBF8FEFBFEFBFEF9FEF9FBF9FBFDFBFBFBF9FBFBFBFBF9FBFBFDFBFBFEF9FEFEFEFDFEFEFEFEFEF9FBFBF9FBFDFDFDF9FBFBFAFBFBFBFBF9FDFDF8FBFBF9FEFEFBF8FEFBFEFEFBF9FBFBFBFBFBFDF9FBFBFBFBFBF9FBFBFBFBF8FBFBFBF9FEFEFEF8FEFEFEFEFEF9F9FBFBFBFBF9FBFBFBF9FBFBFBFBFAFBFBFBFBFBF9F9FEFEFBFAFEFBFEFEFBFEF9FBFBFBF9FBFBFBF9FBFBFBFBFBFBFBFBFBFBFBF9FEFEFEFDF9F8FEFEFEFEFBF9F9FAFBFBFBFBF9FDFBF9FBFDFBF8FBF9FBFBF9F9FEFEF8F9FDF9FEFEFEFEFEFBF9FBFBFBF8F9FDFDFDFBFDF8F8FBFBFBFBFBF9FBFEFEF9F8FAF9FEFEFEFEFBFEF9F9FBF80BFBFBF8FBFBFBF8FBFBF9FBFBF9F9FEFEFEF8F9F9F9FEFEFEFEFEFBFEF9F9FBFBFBFBFBFBF9FBFBF9FBFBFBF9F9FEFBFEFEFAF9F9F9FEFEFEFEFEFEFBF9FCF9FBFBFBF9FBFBFBFAFBFBFBF9FCF9FBFEFEFEFBFAFAFAFEFEFEFEFEFBFEFBF9FCF9F9FBFBFBFBFBFBFBF9F9FCF9FBFEFBFEFEFEFBFEFBFEFEFEFEFEFEFBFEFBF9FCFCF9F9F9F9F9F9F9FCFCF9FBFEFBFEFEFEFBFEFBFEFEFEFEFEFEFEFEFBFEFBF9F9F9FCFCFCFCFCF9F9F9FBFEFBFEFEFEFEFEFEFEFEFEFEFEFEFEFEFEFEFBFEFBFEFBF9F9F9F9F9FBFEFBFEFBFEFEFEFEFEFEFEFEFEFEFEFEFEFEFEFEFEFEFBFEFBFEFBFEFBFEFBFEFBFEFBFEFEFEFEFEFEFEFEFEFEFEFEFEFEFEFEFEFEFEFEFBFEFBFEFBFEFBFEFBFEFEFEFEFEFEFEFEFEFEFEFEFEFBFBFBFBFBFBFBFBFBFBFBFBFBFBFBFBFBFBFBFBFBFBFBFBFBFBFBFBFBFBFBFBF80AF80AFAFAFAFAFAFAFAFAFAFAFAFAFAFAFAFAFAFAFAFAFEFAFEFAFEFAFEFAF8080AF80AFAFAFAFAFAFAFAFAFAFAFAFAFAFAFAFAFAFAFAFAFEFAFEFAFEFAFEFBFBFBFBFBFBFBFBFBFBFBFBFBFBFBFBFBFBFBFBFBFBFBFBFBFBFBFBFBFBFBFBFCFCFCFCFCFCFCFCFCFCFCFCFCFCFCFCFCFCFCFCFCFCFCFCFCFCFCFCFCFCFCFCF9FCF9FCF9FCFCFAFAFCFCFBFBFBFCFAFAFAFCFBFBFBFCFCFAFCFCFCF9FCF9FCFCF9FCF9FCFCFCFAFCFAFCFCFBFCFCFCFCFAFCFCFCFBFCFAFCFAFCF9FCF9FCF9FCFCFCFCFCFCFCFAFAFCFCFCFBFCFCFCFAFCFCFCFBFCFCFAFAFAFCFCFCFCFCFCFCFCFCFCFCFCFCFAFCFCFCFCFBFCFCFAFCFCFCFBFCFCFCFAFCFAFCFCFCFCFCFCFCFCFCFCFCFCFCFAFCFCFCFBFBFBFCFAFAFAFCFBFBFBFCFAFCFAFCFCFCFCFCFCFDFCFDFCFDFCFCFCFCFCFCFCFCFCFCFCFCFCFCFCFCFCFCFCFCFCFCFDFCFDFCFDFCFDFCFDFCFCFCFDF8FDFCFEFEFEFCF8FCF8FCFEFEFEFCFCF8FCFCFCFDFCFDFCFCFCFCFCFCFCFCFCFDFCFCFCFEFCFCFDF8FDFCFEFCFCFCFCFDFCFCFCFCFCFCFCFCFCFCFCFCFCFCFCF8FCFCFCFEFCFCF8FDF8FCFEFEFCFCFCF8FCFCFCFCFCFCFCFCFCFCFCFCFCFCFCFDFCFCFCFEFCFCFDFCFDFCFEFCFCFCFCFCFCFCFCFCFCFCFCFCFBFCFBFCFCFCFCF8FCFCFEFEFEFCF8FCF8FCFEFEFEFCFCF8FCFCFCFBFCFBFCFBFCFBFCFBFCFCFCFCFCFCFCFCFCFCFCFCFCFCFCFCFCFCFCFCFCFCFBFCFBFCFBF         includebin "gfx/cowadragon.bin"
4D65                  pirates
4D65  AAAEAEEEEEEEEEEEEEEEEEFFFFFFFFFFFFFFFFFFFFFFFFFFFFFFFFFFFFC1550FAABBBBBBBBBBBBBBBBBBFFFFFFFFFFFFFFFFFFFFFFFFFFFFFFFFFFFFFF155553AAEAEAEEEEEEEEEEEEFFFFFFFFFFFFFFFFFFFFFFFFFFFFFFFFFFFFFFFC555554AABBBBBBBBBBBBBBBFFFFFFFFFFFFFFFFFFFFFFFFFFFFFFFFFFFFFFFFC555554AAEEAEEEEEEEEEEEFFFFFFFFFFFFFFFFFFFFFFFFFFFFFFFFFFFFFFFFF1555555ABABBBBBBBBBBBBBFFFFFFFFFFFFFFFFFFFFFFFFFFFFFFFFFFFFFFFFF1555555556EEEEEEEEEEEEFFFFFEBABAFFFFFFFFFFFFFFFFFFFFFFFFFFFFFFFF155555555555BBBBBBBBBBFFFFFAAAAABFFFFFFFFFFFFFFFFFFFFFFFFFFFFFFF1555555555556EEED55557FFFFFEBABAFFFFFFFFFFFFFFFFFFFFFFFFFFFFFFFF1555555155555555555555FFFFFFFABFFFFFFFFFFFFFFFFFFFFFFFFFFFFFFFFFC5555544555555555555500CFFEAAAAFFFFFFFFFFFFFFFFFFFFFFFFFFFFFFFFFC555554111111111111100FFFFAAAAABFFFFFFFFF155557F555FFFFFFFFFFFFFF155553444400000000003FFFEAAAAAFFFFFFC044555555555555FFFFFFFFFFFFC1550F1100000000000FFFFFEAAAABBFFFF0011155555555555555FFFFFFFFFFFC00FF000000000003FFFFFFEAAAAAFFFF000055555501155550003FFFFFFFFFFFFFFF00002EEEEEEFFFFFFFEABEABBFFF000000000000000000FFFFFFFFFFFFFFFFFF000BBBBBBBBFFFFABFFFFEAAFFFFFF0000000003FFFFFFFFFFFFFFFFFFFFFFFF0AEEAEEEEEEFFFFEFFFFFEABBFFFFFFFFFFFFFFFFFFFFFFFFFFFFFFFFFFFFFFFABABBBBBBBBBFFFAFFFFFEAEFFFFFFFFFFFFFFFFFFFFFFFFFFFFFFFFFFFFFFFFAEEEEEEEEEEEFFEEFFFFFEABBFFFFFFFFFFFFFFFFFFFFFFFFFFFFFFFFFFFFFFFBABABBBB8FBBBFFEFFFFFEAEFFFFFFFFFFFFFFFFFFFFFFFFFFFFFFFFFFFFFFFFFFFFFFFEC3FFFFFEFFFFFEABBFFFFFFFFFFFFFFFFFFFFFFFFFFFFFFFFFFFFFFFAAAAAAAFB0AAAAAAAAAAAAAEAAAAAAAAAAAAAAAAAAAAAAAAAAAAAAAAAAAAAAAAFFFFFFFECD3FFFFFFFFFFFFFFFFFFFFFFFFFFFFFFFFFFFFFFFFFFFFFFFFFFFFFAAAAAAFBB04AAAAAAAAAAAA8AAAAAAAAAA95A6AA95A55A95A55655A55695A6A6AAAAABEECC1EAAABFAAAABA22AFAAAAAAA7E66BFF7A6A67F6E6A6A66EF7F75D7FEAAAFBBB043ABFFFFEBEAA88AABFEABEA6AA6AAA6B7A66AAA6A6A66AB7F7777EAAABEEACC0CFCCECC3FFEAA2AAAAAAAAA95A7FAA6A55A95AA6A55A55A6E66E6AAAAFBABB003333B30F30FAA8AAAAAFAAAAA66AAA6A6AAAA6A6A69A6AA5577B6AAABEEAECC00CCECC3CC13FE8AAAAAAAAA6A66AAA6A6AA6A6A6A6A66AA6A66A6AABFBAAB301033B30F3004C333FAAAAAAA95A55695B7EA95AA6A6A65566A66A6AACEEAAECC4003CC3CCC1102EC0FAAAAAAAAAAAAAAAAAAAAAAAAAAAAAAAAAAAAABF3AABB30103000F330000BBB03FEAAAAAAAAAAA92AAAAAABFAAAAA0A820A0AAFCCEAECCC10CC00CCC00002FC000CEAAAAAAAAAA846AAAAAAAABEAAA222A2A2BF333BB33013300000000002EC000002AAAFEAAAA911EAAAAAAAAAAA8A228A8ABFCCCAACCC00000000033C0000111111AAAAAAAAA844EAAAAAAAAAAA2A222A2AEF3332AB300000033C0FF30044444444AAAAAAAAAA91EAAAAAAAAAAA020A0202BBCCCCCC0000000FF33CBC11155555518AAAAAAAAAA8EAAAAAAAAAAAAAAAAAAAEE7750000000003CBC020C4455555554A2AAAAAAAAAAEAAAAAAFAAAAAAAAAAAABB955555500000020C02001555555552A2AAAAAAAAAAEAAAAAAAAAAAAAAAAAAAEED5555555000002000200055555554A82AAABFAAAAAEA4AAAAAAAAAAAAAAAAAB95554555554000200000001155554AA8A2AAAAAAAAA1552AAAAAAAAAAAABFAAA54AAAA1555550000000055555552AA80AAAAAAAAA855556AEAAAAAAAAAAAAAAAAAAAAAAAA1555555555555554AAAA80AA2AAAAAA8555554AEAAAAAAAAAAAAAA2AA0A02AAAA85555555554AAAAAA800AAA2AAAAAA9555555BEAAAAAAAAAAAAAAA00AAA802AAAA8555552AAAAAA000AAAA0AAAAAAA9555555BE94AAAAAAAAAAAAAAAAAAAA000AAAAAAAAAAAA00002AAAA0AAAAAAAAA11111555552AAAAAAAAAAAAAAAAAAAAA800AAAAAAA80002AAAAA80AAAAAAAAAA44441553B16AAAAAAAAAAAAAA2202AAAAA0000000002AAAAAAA02AAA4AAAAAAA0000154EAD5AAAAAAAAAAAAAAAAA80AAAAAAAAAAAAAAAAAAA80AAAAA11AAAA1600000578894AAAAAAAAAAFAAAAAAAA00AAAAAAAAAAAAAAA002AAAAAA446AA1560000056DD91AAAAAAAAAFCAAA882AAAA000000000000000AAAAAAAAA112AA5568888913BBC4AAAAAAAABF3AAA008AAAAA2200000002222AAAAAAAAAAA47AA15622AAA4733C0AAAAAAAAAFCAA82C2AAAAAA888888888AAAAAAAAAAAAAAA3AA956AAAA110CCC0AAAAAAAAAAFAAABA2AAAAAAAAAAAAAAAAAAAAAAAAAAAAAABAA956AA154003F02AAAAAAAAA2AAAABAAAAAAAAAAAAAAAAAAAAAAAAABFEAAAABEA955555540000A96AAAAAAAA80AAABAAAAAAAAFEAAAAAAAAAAAAAAAAAAAAAABEF95555554002AA55AAAAAAAAAAABCF00AAAAAAAAAAAAAAAAAAAAAAAAAAAAAAAFAD555555422A9555AAAAAAAAAABF3CC44AAAAAAAAAAAAAAAA4AAAAAAAAAAABFAFD5444456AA555556AAAAAAAAAFCC01116AAAAAAAAAAAAAAA11AAAAAAAAABFAFFD111115555555112AAAAAAAAABF30455AAAAAAAAAAAAAAAA447AAAAAAAAAAFFA8440005555544442AAAAAAAAAABC115A8AAAAEFFBAAAAAAA113AAAAAAAAEFAAB8000005555110002AAAAAAAAA8AAAAAA2AAAAAAAAAAAAAAA447AAAAAAAABFEAEC000884444400002AAAAAAAAAA000022AAAAAAAAAAAAAAAA113AAAAAAAAEFFEBA22220110000000AAAAAAAAAAAAAAAAAAAAAAAAAAAAAAAAAA47AAAAAAAABFFFA88AAA84000000222AAAABBFFBAAAAAAAAAAAAAAAAAAAAAAAAA3AAAAAAAAEFFFBAAAAA8000000888AAAAAAAAAABFFFFBAAAAAAAAAAAAAAAAAAABA852AAAABFFFBABFFFC00022222AAAAAAAAAAAAAAAAAAA4AAAAAAAAAAAAAAAA15554AAAAEFFFEFFFFFC88888AAAAAAAAAAAAAAAAAAAAAA11AAAAAAAAAAAAA1555555AAAABFFFFBFEAB2222AAAAAAAAAAAAAAAAAAAAAAAA447AAAAAAAAAA85554EB15AAAAEFFFFBABBA88AAAAAAAAAAAAAAAAAAAAAAAAAA113AAAAAAAAAAA5553AAD52AAABFFFFEEEEEAAAEEFAAAAAAAAAAAAAAAAAAAAAA447AAAAAAAAAAA555EAA856AAA3FFFFFABBBFFFEBFEAAAAAAAAAAAAAAAAAAAAA113AAAAAAAAAAA154A48B56AAA0FFFFFFAEEEEEEEFFEAABEAAAAAAAAAAAAAAAAA47AAAAAAAAAAA957A19A46AAAA0FFFFFFABBBBABFFFEABFAAAAAAAAAAAAAAAAAA3AAAAAAAAAAA956AB3B12AA8A83FFFFFFAEEEEEFFFFEBFEAAAAAAAAAAAAAAAAABA852AAAAAAA954AAA846AAA0A83FFFFFFBBBABBFFEEBFFAAAAAAAAAAAAAAAAA15554AAAAAAA911CCCD02AAAA0A80FFFFFEAEEEEFAEBABFEAAAAAAAAAAAAAA1555555AAAAAAA844333C02AAAAA0A83FFFFFEBBBBBFBEFBBEAAAAAAAAAAAA85554EB15AAAAAAA9100FF00AAAAAA80A83FFFFFEAEBEBFFFEEFFFFFFAAAAAAAA5553AAD52AAAAAA80000008AAAAAAA80A80FFFFFEBBFEAAABBFFAAAAAAAAAAAA555EAA856AAAAAA80022222AAAAAAAAA0A83FFFFFEBEFFFFEFAAAAAAABFAAAAA154A48B56AAAAAA0888888AAAAAAAA2A80A83FFFFFBFEAAABEAAAAAAAAAAAAAA957A19A46AAAAAA222BAAAAAAAAAAAA8A80A80FFFFFFFFFFFAAAAAAAAAAAAAAA956AB3B12AAAAAAAAAEAAAAAAAAAAAAA2AA0A83FFFFFFFFFFAAAAAAAAAAAAAAA954AAA846AAAAAAAAABAAAAAAAAAAAAAAAA80A83FFFFFFFFEAAAAAAAAAAAAAAA911CCCD02AAAAAAAAAEAAAAAAAAAAAAAAA0AA0A80FFFFFFFAAAAAAAAAAAAAAAA844333C02AAAAAFFFFBAAAAAAAAAAAAAAAA0AA0A83FFFFFEAAAAAAAAAAAAAAAA9100FF00AAAAABFFFFEFFAAAAAAAAAAAAAAA2A80A83FFFCAAAEBFFFFEAAAAAAA80000008AAAAABFFFFBFFFAAAAAAAAAAAAAAAAA80A8000EAAAAAAAAAAAAAAAAA80022222AAAAAAFEEEEFFFFEAAAABFEAAAAAAAAA80AA0AA2AAAAAAAAAAAAAAAA0888888AAAAAAAFFBBBBBFFFAAAAAAAAAAAAAAAAA80AAA8AAAAAAAAAAAAAAAAA222BAAAAAAAAA8FFEEEEEFFFEAAAAAAAAAAAAAAAAAA008AAAAAAAAAAAAAAAAAAAAAEAAAAAAAAAA3FFBBBBBFFFFAAAAAAAAAAAAAAAAAA22AAAAAAAAAAAAAAAAAAAAABAAAAAAAAA88FFFEEEFFEAAFAAAAAAAAAAAAAAAAAAAAAAAAAAAAAAAAAAAAAAAAEAAAAAAAAAA23FFFFFFFAAAAAAAAAAAAAAAAAAAAAAAAAAAAAAAAAAAAAAAAFFFFBAAAAAAAAAA880FFFFF2AAAAAAAAAAAAAAAAAAAAAAAAAAAAAAAAAA         includebin "gfx/pirates.bin"
5965                  trashbaby
5965  0008AAAAAAAAAAAAAAAAAAAAAAAAAAAAAAAAAAAAAAAAAAAAAAAAAAAAAAAA200002AAAAAAAAAAAAAAAAAAAAAAAAAAAAAAAAAAAAAAAAAAAAAAAAAAAAAAAAAAAA800AAAAAAAAAAAAAAAAAAAAAAAAAAAAAAAAAAAAAAAAAAAAAAAAAAAAAAAAAAAAAA02AAAAAAAAAAAAAAAAAAAAAAAAAAAAAAAAAAAAAAAAAAAAAAAAAAAAAAA999AAAA82A5A9A969696A5A69AAAAAAAAAAAAAAAAAAAAAAAAAAAAAAAAAAAAAA66676AAA82A66666A6A699A659AAAAAAAAAAAAAAAAAAAAAAAAAAAAAAAAAAAAA9DAA9DAAA8AA5A566A6A699A665AAAAAAAAAAAAAAAAAAAAAAAAAAAAAAAAAAAAA76AAA6AAAA2A66666A6A699A665AAAAAAAAAAAAAAAAAAAAAAAAAAAAAAAAAAA99DAAA9DAAA8AA6666969696A5A69AAAAAAAAAAAAAAAAAAAAAAAAAAAAAAAAAAA776AAAA6AAAAAAAAAAAAAAAAAAAAAAAAAAA9999AAAAAAAAAAAAAAAAAAAAAAAA9DDAAAA9AAAAAAA6656969A9595AAAAAAAA6666766AAAAAAAAAAAAAAAAAAAAAA776AAAAA6AAAAAA669A699A9AA6A66AAAA9AAAA9DD9AAAAAAA999999999AAAA9DDD9AAA9AAAAAAA669A699A96A6955AAAAAAAAAA7776AAAAAAA67777777666A77776AAA6AAAAAAA669A699A9AA6A56AAAAAAAAAA9DDDAA999AAA9DDDDDDDDD9DDDDAAAA9AAAAAAA9A56969595A6A9AAAAAAAAAAAA777667776AAA77777777777776AAAA6AAAAAAAAAAAAAAAAAAAAAAAAAAAAAAAAA9DDDDDDDD9AA99DDDDDDDDDDDAAAA9AAAAAAAAAAAAAAAAAAAAAAAAAAAAAAAAAA77777777776AAA7777777777766AA6AAAAAAAAAAAAAAAAAAAAAAAAAAAAAAAA99DDDDDDDDDDDAAA9DDDDDDDDDDAAA9AAAAAAAAAAAAAAAAAAAAAAAAAAAAAAAAAA7777777777776AAA7777777776AAAAAAAAAAAAAAAAAAAAAAAAAAAAAAAAAAAAAA9DDDDDDDDDDDDAAA9DDDDDDDDAAAA9AAAAAAAAAAAAAAAAAAAAAA556AAAAAAAAAA7777777777776AAA77777776AAAA6AAAAAAAAAAAAAAAAAAAAA55555AAAAAAA99DDDDDDDDDDDDD9AA9DDDDDDAAAA9AAAAAAAAAAAAAAAAAAAAA955555AAAAAAAA7777777777777776AA7777776AAA6AAAAAAAAAAAAAAAAAA955555555AAAAAAAA9DDDDDDDDDDDDDDDAA9DDDDDAAA9AAAAAAAAAAAAAAAAAAA955555555AAAAAAAAA777777777777776AAA777776AA6AAAAAAAAA9555AAA56A955555555AAAAAAAAA9DDDDDDDDDDDDDDAAA9DDDDDA9AAAAAAAAAA55555AA555555555555AAAAAAAAAA777777777777776AAA7777766AAFAAAAAAA555555A5555555555556AAAAAAAA9DDDDDDDDDDDDDDDAAA9DDDDDAAABAAAAAAA55555555555555555556AAAAAAAAA7777777777777776AAA777776AABAAAAAAA55555555555555555555AAAAAAA9A9DDDDDDDDDDDDDDDAAA9DDDDDAABEAAAAAA555555555555555555556AAAAAAA67777777777777776AAAA777776AAEAAAAAA555555555555555555556AAA9999DDDDDDDDDDDDDDDDDAAA9DDDDDDABAAAAAAA555555555555555555556AAA7777777777777777777776AAA777776ABAAAAAAA555555555555555555556AAA9DDDDDDDDDDDDDDDDDDDDDAAA9DDDDDABAAAAAAA555555555555555555556AAA77777777777777777777776AAA777776BAAAAAAA555555555555555555556AAA9DDDDDDDDDDDDDDDDDDDDDAAAA9DDDDABAAAAAAA555AA5555555555555556A66A7777777777777777777776AAA777776AAAAAAAA5AA9A5555555555555555A9D9DDDDDDDDDDDDDDDDDDDDDDAAA9DDDDDAAAAAAAAAA66955555555555555556A7777777777777777777777776AAA77777AAAAAAAA99DA5555555555555555569DDDDDDDDDDDDDDDDDDDDDDDDDAAA9DDDDAAAAAAAA776955555555555555555677777777777777766776777776AAA777776AAAAAAADDA955555555555555555A9DDDDDDDDDDDDDDAA99A9DDDDDAAA9DDDDDAAAAAAA776555555555555555555A7777777777777776AAAAA777776AAA77776AAAAAAADDA55555555555555555699DDDDDDDDDDD99999555A9DDDDAAAA9DDDDAAAAAAA76A555555555555555556AA77777777776AAAA95556A77776AAA777776AAAAAADD95555555555555555555A9DDDDDDDDD9555555555A9DDDDAAA9DDDDAAAAAAA76955555555555555555555A777777776A555555555677776AAAA77776AAAAAADA9555555555555555555569DDDDDD999A55555555569DDDAAAA9DD99AAAAAAA765555555555555555555567777776AAAA55555555AAA7776AAAA76AA6AAAAAADA55555555555555555555A9DDDDDD9555555555556AA99DAAAAA9AAA9AAAAAA6A55555555555555555556A7777766A555555555556AAAA6AAAAAAAAAA6AAAAAD9555555555555555555569DDDDDA9A5555555556AAAAAA9AAAAAAAAAA9AAAAA695555555555555555555A6677776AA55555556AAAAAAAAAAAAAAAAAAA6AAAAAA55555555555555555555AAA9DDDA95555555AAAAAAAAAAAAAAAAAAFAA9AAAAAA5555555555555555555555A7776A9555556AAAAAAFAAAAAAAAAAABDEAAAAAAA955555555555555555555569DDD9955555AAAAAAAFFFAAAAAAAAAABFDAAAAAAA955695555555555555555567776A95556AAAAAA6BFD7AAAAAAAAAABFDAAAAAAAAAAA955555555555555555A9DDA95555AAAAAAA6BFF7EAAAAAAAAAAF5AAAAAAA6666555555555555555556A776A5555556AAAAA5AFFFAAAAAAAAAAA56AAAAAAADDDA55555555555555555A9DDA9555555AAAAAA96AFAAAAAAAAAAAAAAAAAAAAA776955555555555555556A776A5555555AAAAAAA55A95AAAAAAAAAAAAAAAAAAADDA95555555555555555A9DDA95555556AAAAAAAA955AAAAAAAAAAAAAAAAAAAA76A55555556555555555A776A5555556AAAAAAAAAAAAAAAAAAA5A6AAAAAAAAAADD955556AAA5555555569DDA955FFD5AAAAAAAAAAAAAAAAAAAA555AAAAAAAAAA7695556A66A55555555A776A55555FFEAAAAAAAAAAAAAAAAA995555AAAAAAAAADA5556A9DA95555555699DA955555AABFFAAAAAAAAAAAAAAA5555556AAAAAAAA6A56AA6776555555556AA6955655AAAAABFEAAAAAAAAAAAA55555556AAAAAAAAD96A99DDDA55555555A9AA556A5AAAAAAAAFFAAAAAAAAA9955555555AAAAAAAA6AA67777695555555556A55AA95556AAAAAABFEAAAAAA955555555556AAAAAAAD99DDDDDA5555555555A56A9A55556AAAAAAAAFEAAAAA955555555555AAAAAAA77777776A55555555569AA5695555AAAAAAAAAAFFAAAA5555555555A9AAAAAAADDDDDDDA9555555555AA955A55556AAAAAAAAAAABFAAA55555555555A6AAAAAA7777777655555555555555695555AAAAAAAAAAAAABFE95555555555569AAAAAADDDDDDDA55555555555555A55556AAABFFFFFAAAAAAFFD555555555AAAAAAAAA777777695555555555555695555AAAFFAAAABFFFAAA95FF55555556AAAAAAAAADDDDDDA55555555555555A55556ABFEAAAAAAAABFFA5557F555555AAAAAAAAAA777776A55555555555556955557FFAAAAAAAAAAAABFD5557F55556AAAAAAAAAADDDDDD96AA55555555FFFFFFFFF56AAAAAAAAAAAA957F5557D555AAAAAAAAAAA777776AA66555555555595556955AAAAAAAAAAAAA555575555D56AAAAAAAAAAADDDDDD99DA5555555556956AA956AAAAAAAAAAAA5555557555556AAAAAAAAAAA7777777769555555555A56A5A55AAAAAAAAAAAA95555555555556AAAAAAAAAAADDDDDDDDA955555555596A56956AAAAAAAAAAA57FFFFFF5555556AAAAAAAAAAA7777777765555555556AA55A55695AAAAAAA95FF555555F775556AAAAAAAAAAADDDDDDDDA5555555556A555955555555555557D55555555555D56AAAAAAAAAAA7777777695555AA95569556955556A55555ABEAA955555F555556AAAAAAAAAAADDDDDDDD955AA999555555A55AAAA9556AABD555AA5557D755555AAAA9AAAAAA7777777696AA6769555556AAA956A56AA55F555556AA9F555D5555695AAAAAAADDDDDDDAAA99DDA955555AA5555A56A555FD55555555BD555555555556AAAAAA3777777666777765555555555569AA555FD555555555FAA9555555556AAAAAA8DDDDDDDDDDDDDDA55555555555AA95557D5555555557D55AAAAAAAAAAAAAAAAA37777777777776A56AA9555556A95555F55555555557555556AAAAAAAAAAAAA81DDDDDDDDDDDDD9AA99955555695555FD5555555555F55555AAAAAAAAAAAAAA837777777777776AA676955555555557D55555555557D55555AAAAAAAAAAAAAA80DDDDDDDDDDDDD99DDA95555555557F55555555555F555555AAAAAAAAAAAAAA00377777777777777776555555555FF555555555557D5555556AAAAAAAAAAAA80000CDDDDDDDDDDDDDDA55555555FD555555555555F55555555AAAAAAAAAA2000         includebin "gfx/trashbaby.bin"
6565                  cygnetsong
6565  F30011111554500015550555575557D555755555555155555555555555555511CC00444455545000140003C000C000C000C000C0000154000000000000000000F300111555545000145504F155555555555553D1555154555555555555555551CC004445555454445455153C5553FF3305554F115551544000003F000FF00011F3001115401455555455554F553CCC0000553C44555154455554F3C5330C5511CCCCC000000000000055555453F3011144057151555000015557C4F1CC53C511F300111540155545555555554BCC004455515555555555515558C53FFC13F111CC004AAA1555554555F155552B3000111554555555355550000FC17EFC0D3C11F302ABBBAA855545553FC554AFCC0004445515554FC555555558F0D3B3314F10CEAAAAAEEEEA15455553FD52BB300000111545553F155555555F3F14ECCC53D5AAAAAAAAABBB85400055315AEFCC000000455157F1000000000BCC053B3313F0AAAAAAAAAAAEE1555455554ABBF0000000115154C515555153FFF3014ECCCC3CAAAAAAAAAAAAB8555455556AEFCC000000045455551555454CC3FCC053B3314FAAAAAAAAAAAAEE000055552BBFF3300000011515551555153F14FF300CECCC13AAAEFFAAA02ABA55545555AAEFFCCCC000004515500155153F013FCC313B3307AAAAAEFFEAAAAE1553FF15ABBFFF333000001515540555153F00CFF3014ECCC1AAAAAABBFFEAAB95543C55AAEFFFCCCC000045154FFC55452FCF13FCC043B330AAAAAAAABBFFAA85545555AABFFFF3330000151553C555452FFC04FF3010ECCCAAAAAAAAAABBEBA5545554AAEFFFFCCCC0004515551555514B30013FCC043B33AAAAAAAAAAAAAAE5545556AABFFFFF33000011455515555452CC004FF3010ECCAAAAAAAAAAAAAAA1544F02AAEFFFFFCCC00004400015555554B30013FCC043B3AAAAAAAAAAAAAEA554FC56AABFFFFF330000310555555453FF3CC00CEF300CECAAAAAAAAAAAABB855FC556AAEFFFFFCCC000CC457C55514CC0FF30313BCC30FBAAAA88888AAAEF85504552AABBFEAAA3F30333054FC54533C533CC004EF0C0CFAAAAA22222AABBE554454AAAAFFFFFCCC00CFF3153F1453F3134F30013BC0313AAAAA88554AAAFE554452EAAABFFFF333033EC04553D453FCCC53CC004EF0017AAABA045552ABBE15445BEABAAFFEAABCCCFAF351555456CFF054F30003BC007AAAAFA15556AAFF95444BAAEEABFFFF3333EB8011555514BCC0130FC030EC000AAAABEA1556AABE85445AEABAEAFFFFCCCFAEF3C15001052F300C53C007FF000AAAAAFAA154AAFBE5444BAAABFABFFFFFFEBBB3F15151414BCC3054F00F5F000AAAAAAAA855AAAFE5445AAAAABEAFBFEFEAAAEFFD51515052F30017FC307FC00AAAAAAAFA15AAEBE5444AAAAAABABF33EABBABBFD51511414BCC00C4C00D4F00AAAAAABEA952AAFE5445AAAAAAAAABFEAAAAAA3CD515000002F3000D30005300ABAAAABAE856ABBE5444AAEA82AAAAFAEAAC2273D515551414BCC0313CC057C0A80AAAABFA54AAA85445AABA0AE2AAAAA8B3483CD5155515052F3000CF3014C0A300AAAFFE552AA15445AAEE8280AAAAA16D2273D5155545414BCC0F1FCC05F0AC004AABFE1552855445AABBA002AAFEAA148830D51554555052F3F013300530A30012AEFF9555555445BAEEAAAABBF3AABBB073C00001115414BCC017CC01708C0046ABFF9554105445FEBFFEAAABCCAAE3003E1555545055052F3004F3014CB30010AEFE8550001444FAEFEAAABBF3EBBBC07B0000154400000BCC053CC05C8C0044ABBBA550001457FABFAABEEFFCECEF037E5555545145505A30017F3054B30011AAAFE550001542CAFAABFAAFF0EF0FCC7800005115515412CC004CC0108C00442ABFE55400545A9ABFFFEAAFFC38C0F13D55545455545516F3005F3000B300112ABFE5550155421AEFFFEBEFF0CF3000F800045455551516BCC013C00C8C00444AAF85554554555ABFFFABFFFF3ECC04ED55445455551504BF0017F03FF3001112AA955545554552AFFEBAFFFFFB3313B000445455550505BCC004C0CCCC004444A8555545545556ABFAEEAFFFACFCCEE555555401554545AF00000000F300111555555545544556AAFBBBAAAAB33F3FA1444455545545452CC0000000CC00444555540000005402ABEAFEEAABCC4FFE85000015501545416F003F0C00F300111555545555544456BBEBBFBBEB3113F395000015505541416BC3CC0000CC00444555544000004452AFEAEFFBBBC444FC95000015501551414B30300000F30011155554455554445ABAEABBFEAF3103F3D5000015505551415BC0000000CC0044455554455554445AAEEEAEFFF0C0FFCC95000015501551514BF0000000F33300000000455554445AAAEFAAAABFFF3732C1444455545551515BCC000000CC0044455555455554444AAEEEEFB0871CC74215555554015551515B30000000F33300000000055554446AEBEBAFC1D5171F16C0004454555551515BCC000000CC0044455545555554442AAEEBBBBFB331DC5215554454555551505AF3000000F3001115554555555444AAEBBAAC31D45DF11F000005545555545052CCC00000CC00444555455554144AABBAFBAA20874F0C5B155154545555545456F3300000F300111555455540542AAAEBBEFAAAAFF0714BD54155545555545452FCC00000CC0044455545540552AAABBAEFAFFCCCCFC57BC10005545555545016BF300000F3001115555550152AAAAAEABBBAAAFFFC5520C54145545555545514BCCC0000CC00444555454154AAAAABBAAEEEE3331154E0F55145545555515505BF300000B30011155555054AAAAAAEEAABFBFCCC4553B0F55545545555505505AFCC0000AC0044444544552AAABAABBAEAFFFFF0115E313000000000000010012F330000AB001115545552AAAEEEAEEBABBFFBBF04483D7155544454555055416BCC0000A80AAAA855552AABBBBABBFAEAAEEEEEF0E8414D55544454555155414BF30000AAAAAAAAA154AAEEEEEAAFFBBAAAAABBBFA01C4D555444545555515052CC0000AAAEEEEEAAAAABBBBBBABBEAEEAAAAAAAA00435C555444545555505414B30000AAABBBBAABBAAEEEEEEAEFEBBEBBAAAABCC01053555444545555541515ACC000AAAAAAAAAEEEEABBBBBABFEAFFAEEEEFF30047131554445400000400002B3000AAAAAAAAABBBBAAAEEEAEFEBFFABBBFFCC0114D4C554445555555551514BCC00AAAAAAAAAAAEEEEAAAABBFEEFFEEFFFFF30044143154440000000000000AFC00AAAAAAAAAAAABBBAAAAAEFEBFFEBBFFFCC0115C50D544555555555555152F300AAAAAAAAAAAAAEEEEAAAABEFFFFAFFFF300045051C544555555555555156FF00AAAAAAAAAAAAAABBBBAAAAABFFFABFFCCC01154503144555555555555152F3C0A59A9596A5959695E6999AAAABFEFFF33000454147C44555555555555156BCC09A9AA6999AA6999A99959AAAAAAEBFFCC001154140F04555500001555154B330959AA69695A6969695959AAAAAAABFF303004551513F0554455550055000BCC0A99AA69AA9A6999A99999AAAAAAAAFCC0CCC11505453F155555555505515AF009695959A96A6999599999AAAAAAAAB303333331055153FC554FFC55555152CC0AAAAAAAAAAAAAAAAAAAA9AAABBABBBBFFCCCCCCFC55553FFFF33330555156F00A0808880A0AA88A288AA9AAAEEEEEEFC0FFFF333FFC5553FCCCCCCCC15156CC08AA2888A8AAA888888AA9AAABBFFFF300444FFFFFFFFC4F33111533301156B0088A2888280AAA28888A955AAEFFFFCC01111103FFFFFFFCC44455550C0154BC088A2888AA8AAA28888AA56AABFFFFF30444445554FFFFF311155555550055B30A080A28082AAA2A280AA9AAAEFFFFCC1111115555554FCC04455555555015AC0AAAAAAAAAAAAAAAAAAAAAAAABFFFF330444444011555555511555555555052F0A2AA828080A54ED5E2A255654FFFFCC1111151000004555555555555555416CC88AA88A2A2A6B24866A66AA7B3FFF330444555554400045555555555555406B3A29582A2A2A6A26A66266AA6F7FFFCC1111555555555515555555555555500BC88AA88A2A2A54E6A666655A54FFFF300444555555555555555555555555440B3A2AA8280A2A6AA6A66666AA613FFFCC1111555555555555550555555555510BCAAAAAAAAAAA6AA4863726AA787FFF304444555555555555550155555555444B39555555555A6AAD5ECCE5566F34FFCC1111555555555555550445555555110BCAAAAAAAAAAAAAAAAAAAAAAABBFFFF304444555555555555550111155544444BF         includebin "gfx/cygnetsong.bin"
7165                  squibb
7165  555555555555555555555555555555554855555555555555555555555555555555555555555555555555555555555554EAC555555555555555555555555555555555555555555555555555555555554FAABC55555555555555555555555555555555555555555555555555555555553EAAAF1555555555555555555555555555555555555555555555555555555554FAAAABC555555555555555555555555555555555555555555555555555555553FAAAEBF15555555555555555555555555555555555555555555555555555554FEAAAAAFC5555555555555555555555555555555555555555555555555555553FEAAABAFF155555555555555555555555555555555555555555555555555554FFEAAAAAFFC55555555555555555555555555555555555555555555555555553FFAAAABABFF1555555555555555555555555555555555555555555555555554FFFAAAAAABFFC555555555555555555555555555555555555555555555555557FFFAAAAAEBFFF555555555555555555555555555555555555555555555555553FFEAAAAAAAFFF15555555555555555555555555555555555555555555555555FFFEAAAAEAAFFFD5555555555555555555555555555555555555555555555555FFFEAAAAABAFFFD55555555555555555555555555555555555555555555555553FF2AAAAAAA3FF155555555555555555555555555555555555555555555555554F16AAAAEAA53C555555555555555555555555555555555555555555555555555556AAAAAAA555555555555555555555555555555555555555555540055555555552AAAAABA15555555550015555555555555555555555555555500000155555555AAAAAAAA95555555400000555555555555555555555555555401550055555555AAAAAEAA95555555005540155555555555555555555555555015555015555555AAAAAAAA95555554055554055555555555555555555555554055555405555555AAAAAAAA95555550155555015555555555555555555555550154005501555555AAAAAABA95555540550015405555555555555555555555550540000541555555AAAAAAAA95555541500001505555555555555555555555541500000150555555AAAAAAAA95555505400000541555555555555555555555501400000050155555AAAAAEAA95555405000000140555555555555555555555505400000054155555AAAAAAAA95555415000000150555555555555555555555505000200014155555AAAAAAAA95555414000800050555555555555555555555415000A80015055555AAAAAABA95555054002A00054155555555555555555555414000A80005055555AAAAAAFE95555050002A00014155555555555555555555414002BA0005055555AAAAAABA9555505000AE80014155555555555555555555054002EE0005415555AAAAAAAA9555415000BB80015055555555555555555555050002FA0001415555AAAAAEAA9555414000AF80005055555555555555555555050002FE8001415555AAAABFAA9555414002BF80005055555555555555555555050002FA8001415555AAAAAEAA9555414002AF80005055555555555555555555050002FE8001415555AAAAAAAA9555414002BF80005055555555555555555555050002FAA001415555AAAAAABA955541400AAF80005055555555555555555555050002FEA001415555AAAAAAFE955541400ABF80005055555555555555555555050002FAA001415555AAAAAABA955541400AAF80005055555555555555555555050002EEA001415555AAAAAEAA955541400ABB80005055555555555555555555050000BBA001415555AAAABFAA955541400AEE00005055555555555555555555054000AEE005415555AAAAAEAA955541500BBA000150555555555555555555554140002BA0050555552AAAAABA155550500AE8000141555555555555555555554140000A80050555552AAAAAFE1555505002A0000141555555555555555555554150000B8015055555AAAAAABA9555505402E00005415555555555555555555550500002E014155555AAABFAAA955554140B800005055555555555555555555550540002A0541555552AAFFEAA155554150A800015055555555555555555555550140002A0501555554ABFFFA8555554050B800014055555555555555555555554150000A9505555555AFEAFE9555555056A000054155555555555555555555555054000A9415555555BE8CAF9555555416E000150555555555555555555555555015400A9015555555FE2B2FC555555406A0015405555555555555555555555554055552A055555549FA596BE15555550A85555015555555555555555555555555015556A15555552A3A152BA85555554A95554055555555555555555555555555401550A9555554AA7AC4EBAA1555556A05540155555555555555555555555555500000A8555552A94EAAAC2A8555552A000005555555555555555555555555555540052A15552AA15EAAAD4AA85554A8500155555555555555554555555555555555554A8554AA1553EAF154AA1552A1555555555555555555554155555555555555555AA14AA855454545552AA14AA55555555555555555555540555555555555555552AAAA85552121221552AAAA855555555555555555555540155555555555555554AAAA1555A9A9A89554AAAA1555555555555555555515400555555555555555554AA15555A9A9A895554AA155555555555555555555055001555555555555555555555555A9A9A89555555555555555555555555555015400555555555555555555555555A9A9A89555555555555555555555555554005500155555544014015015014545A9A9A89501501454501401555555555550001540055555544544544545454145A9A9A89454454454545454455555555540400550015555544544544545454445A9A9A89455454454545454455555555501500154005555544014014545454505A9A9A89501454454545454455555555405540055001555544544514005454545A9A9A89554444454545454455555555015550015400555544544544545454545A9A9A99454451454545454455555554055554005500155544014544545014545A9A9A89501504501501401555555550155555001540055555555555555555555A9A9A99555555555555555555555540555000000000000000000000000000005A9A9B89400000000101454501400001555000000000000000000000000000004A9A9A99400000000145414454400005555555001540055555555555555555556A1A9A88555555555545444455555555555554005500155555555555555555556A4A9B9A555555555545450455555555555550015400555555555555555555552A6A9A8A55555555554545445555555555554005500155555555555555555555A86B9B9255555555554545445455555555550015400555555555555555555554A96A9A861555555555014545015555555554005500155555555555555555554AA12B92E6955555555555555555555555555001540055555555555555555554AA85AA96A685555555555555555555555555500550015555555555555555552AAA15AB96A4A155555555555555555555555550154005555555555555555555AAA154AE96A1A85555000014005555555555555055001555555555555555555555554ABB94A82A855540005501555555555555515400555555555555555555555554AAEE952E0AA8555555555555555555555555540155555555555555555555554AABBA156B8555550000115511555155555555540555555555555555555555556AEEE8554AE855554000105410555055555015541555555555555555555555556ABBA15552BA55555550101010155015554005545555555555555555555555554AAA155554A15555554010001005500555501555557F755D555555555557555555555D55555555555500100C1001500355555555555D755555555555555755555D555555555555555400540C540C540355501555555D7D5D5F557D7D5D5F775F7F555D5F55777D7D7F3F730C1F3F3F0F15400555555D775D5D557775777777755D555D5D557777757C37730C374C3D7305501555555D775D7D557D755D5F7F5F5F555D7D557F77750F173F1C3F5F0F5F0D5555555555555555557555555555555555555555555554007F005400540054005555555555555555555555555555555555555555555550015001550015001500155         includebin "gfx/squibb.bin"
                      
7D65                          end start
